# file opened: marco128.asm
   1  0000              ; ============================================================
   2  0000              ; MARCO BROS 128
   3  0000              ; ZX Spectrum 128K Toastrack platformer
   4  0000              ; Inspired by classic 8-bit platformers of the 1980s.
   5  0000              ; Assembler: sjasmplus (z00m fork)
   6  0000              ; Build:     sjasmplus --nologo --lst=build/marco128.lst marco128.asm
   7  0000              ; Version:   0.7.6
   8  0000              ; ============================================================
   9  0000
  10  0000                  DEVICE ZXSPECTRUM128
  11  0000
  12  0000              ; ============================================================
  13  0000              ; CONSTANTS
  14  0000              ; ============================================================
  15  0000              PORT_ULA        EQU $FE
  16  0000              PORT_KEMPSTON   EQU $1F
  17  0000              PORT_PAGE       EQU $7FFD
  18  0000
  19  0000              BANKM           EQU $5B5C
  20  0000              ATTR_BASE       EQU $5800
  21  0000              SCREEN_BASE     EQU $4000
  22  0000              SCREEN_SIZE     EQU 6912
  23  0000
  24  0000              IM2_TABLE       EQU $7E00
  25  0000              IM2_JUMP        EQU $BCBC
  26  0000              HANDLER_ADDR    EQU $BC00
  27  0000              ENGINE_BASE     EQU $8000
  28  0000
  29  0000              TILE_AIR        EQU 0
  30  0000              TILE_GROUND     EQU 1
  31  0000              TILE_BRICK      EQU 2
  32  0000              TILE_QBLOCK     EQU 3
  33  0000              TILE_PIPE_T     EQU 4
  34  0000              TILE_PIPE_B     EQU 5
  35  0000              TILE_FLAG       EQU 6
  36  0000              TILE_SOLID      EQU 7
  37  0000              TILE_QUSED      EQU 8
  38  0000              TILE_CASTLE     EQU 9
  39  0000
  40  0000              ATTR_SKY        EQU $47     ; bright white ink, black paper
  41  0000              ATTR_GROUND_C   EQU $F0
  42  0000              ATTR_BRICK_C    EQU $16
  43  0000              ATTR_QBLOCK_C   EQU $F2
  44  0000              ATTR_PIPE_C     EQU $E0
  45  0000              ATTR_FLAG_C     EQU $E7
  46  0000              ATTR_CASTLE_C   EQU $F0
  47  0000              ATTR_USEDQ_C    EQU $38
  48  0000
  49  0000              MAP_W           EQU 64
  50  0000              MAP_H           EQU 11
  51  0000              SCREEN_TW       EQU 16
  52  0000              SCREEN_TH       EQU 11
  53  0000              TILE_PX         EQU 16
  54  0000
  55  0000              PLR_W           EQU 12
  56  0000              PLR_H           EQU 14
  57  0000              PLR_MAX_VX      EQU 2
  58  0000              GRAVITY         EQU 1
  59  0000
  60  0000              ENT_WALKER      EQU 1
  61  0000              ENT_SHELLER       EQU 2
  62  0000              ENT_BOSS        EQU 3
  63  0000              MAX_ENEMIES     EQU 8
  64  0000
  65  0000              STATE_TITLE     EQU 0
  66  0000              STATE_PLAYING   EQU 1
  67  0000              STATE_DEAD      EQU 2
  68  0000              STATE_LEVELEND  EQU 3
  69  0000              STATE_GAMEOVER  EQU 5
  70  0000              STATE_WIN       EQU 6
  71  0000
  72  0000              SFX_JUMP        EQU 0
  73  0000              SFX_COIN        EQU 1
  74  0000              SFX_BUMP        EQU 2
  75  0000              SFX_STOMP       EQU 3
  76  0000              SFX_DIE         EQU 4
  77  0000              SFX_POWERUP     EQU 5
  78  0000              SFX_BOSS_HIT    EQU 6
  79  0000              SFX_LEVELEND    EQU 7
  80  0000
  81  0000              AY_FINE_A       EQU 0
  82  0000              AY_COARSE_A     EQU 1
  83  0000              AY_FINE_B       EQU 2
  84  0000              AY_COARSE_B     EQU 3
  85  0000              AY_FINE_C       EQU 4
  86  0000              AY_COARSE_C     EQU 5
  87  0000              AY_NOISE        EQU 6
  88  0000              AY_MIXER        EQU 7
  89  0000              AY_VOL_A        EQU 8
  90  0000              AY_VOL_B        EQU 9
  91  0000              AY_VOL_C        EQU 10
  92  0000              AY_ENV_FINE     EQU 11
  93  0000              AY_ENV_COARSE   EQU 12
  94  0000              AY_ENV_SHAPE    EQU 13
  95  0000
  96  0000              NOTE_REST       EQU 0
  97  0000              NOTE_C4         EQU 424
  98  0000              NOTE_D4         EQU 377
  99  0000              NOTE_E4         EQU 336
 100  0000              NOTE_F4         EQU 317
 101  0000              NOTE_G4         EQU 283
 102  0000              NOTE_A4         EQU 252
 103  0000              NOTE_B4         EQU 224
 104  0000              NOTE_C5         EQU 212
 105  0000              NOTE_D5         EQU 189
 106  0000              NOTE_E5         EQU 168
 107  0000              NOTE_F5         EQU 159
 108  0000              NOTE_G5         EQU 141
 109  0000              NOTE_A5         EQU 126
 110  0000              NOTE_C6         EQU 106
 111  0000              NOTE_D6         EQU  94
 112  0000              NOTE_E6         EQU  84
 113  0000              NOTE_G6         EQU  71
 114  0000              NOTE_Bb4        EQU 238     ; Bb4 / A#4 = 466 Hz
 115  0000              NOTE_Eb5        EQU 178     ; Eb5 / D#5 = 622 Hz
 116  0000              NOTE_B5         EQU 112     ; B5  = 988 Hz
 117  0000
 118  0000              ; ============================================================
 119  0000              ; BANK 2 — FIXED ENGINE ($8000–$BFFF)
 120  0000              ; ============================================================
 121  0000                  PAGE 2
 122  0000                  ORG ENGINE_BASE
 123  8000
 124  8000              ; $8000: entry stub — Z80 snapshot jumps here
 125  8000              ; Border flashes: 2=red means CPU reached $8000
 126  8000 3E 02            ld a, 2
 127  8002 D3 FE            out ($FE), a
 128  8004 C3 75 83         jp GAME_START
 129  8007 4D 42 31 32      DEFB "MB128 v0.7.6", 0   ; version tag in binary
 129  800B 38 20 76 30
 129  800F 2E 37 2E 36
 129  8013 00
 130  8014
 131  8014              ; ============================================================
 132  8014              ; GAME VARIABLES  ($8003 onwards)
 133  8014              ; ============================================================
 134  8014 20 00        plr_x:          DW 32
 135  8016 90 00        plr_y:          DW 144
 136  8018 00           plr_vx:         DB 0
 137  8019 00           plr_vy:         DB 0
 138  801A 00           plr_dir:        DB 0
 139  801B 00           plr_anim:       DB 0
 140  801C 00           plr_anim_cnt:   DB 0
 141  801D 00           plr_on_ground:  DB 0
 142  801E 00           plr_jumping:    DB 0
 143  801F 00           plr_dead:       DB 0
 144  8020 00           plr_dead_timer: DB 0
 145  8021 00           plr_big:        DB 0
 146  8022 00           plr_inv_timer:  DB 0
 147  8023
 148  8023 00           plr_prev_sx:    DB 0        ; CHANGED: Fix 53 — screen_x on previous drawn frame (for EraseSprite)
 149  8024 00           plr_prev_sy:    DB 0        ; CHANGED: Fix 53 — screen_y on previous drawn frame (for EraseSprite)
 150  8025
 151  8025 00 00 00...  ent_prev_sx:    DS MAX_ENEMIES, 0   ; CHANGED: Fix 53 — prev screen_x per enemy
 152  802D 00 00 00...  ent_prev_sy:    DS MAX_ENEMIES, 0   ; CHANGED: Fix 53 — prev screen_y per enemy
 153  8035
 154  8035 00 00        cam_x:          DW 0
 155  8037 00 03        cam_max:        DW (MAP_W-SCREEN_TW)*TILE_PX
 156  8039
 157  8039 00           game_state:     DB STATE_TITLE
 158  803A 00 00 00 00  score:          DS 4, 0
 159  803E 03           lives:          DB 3
 160  803F 00           coins:          DB 0
 161  8040 00           world:          DB 0
 162  8041 00           level_num:      DB 0
 163  8042 90 01        level_timer:    DW 400
 164  8044 00           timer_cnt:      DB 0
 165  8045
 166  8045 00           cur_level_bank: DB 0
 167  8046 00 C0        cur_level_map:  DW $C000
 168  8048
 169  8048 00 00 00...  ent_type:       DS MAX_ENEMIES, 0
 170  8050 00 00 00...  ent_xl:         DS MAX_ENEMIES, 0
 171  8058 00 00 00...  ent_xh:         DS MAX_ENEMIES, 0
 172  8060 00 00 00...  ent_yl:         DS MAX_ENEMIES, 0
 173  8068 00 00 00...  ent_yh:         DS MAX_ENEMIES, 0
 174  8070 00 00 00...  ent_vx:         DS MAX_ENEMIES, 0
 175  8078 00 00 00...  ent_state:      DS MAX_ENEMIES, 0
 176  8080 00 00 00...  ent_anim:       DS MAX_ENEMIES, 0
 177  8088 00 00 00...  ent_anim_cnt:   DS MAX_ENEMIES, 0
 178  8090
 179  8090 00           pwrup_xl:       DB 0
 180  8091 00           pwrup_xh:       DB 0
 181  8092 00           pwrup_yl:       DB 0
 182  8093 00           pwrup_active:   DB 0
 183  8094 00           pwrup_vy:       DB 0
 184  8095
 185  8095 00           joy_held:       DB 0
 186  8096 00           joy_new:        DB 0
 187  8097 00           joy_prev:       DB 0
 188  8098
 189  8098 00 00        frame_count:    DW 0
 190  809A 00 00 00...  ay_buf:         DS 14, 0
 191  80A8
 192  80A8 00           sfx_active:     DB 0
 193  80A9 00 00        sfx_ptr:        DW 0
 194  80AB 00           sfx_frame:      DB 0
 195  80AC
 196  80AC 00 00        music_ptr:      DW 0
 197  80AE 00 00        music_note_ptr: DW 0
 198  80B0 00           music_frame:    DB 0
 199  80B1 00           music_playing:  DB 0
 200  80B2
 201  80B2 00           cam_tile_x:     DB 0
 202  80B3 00           cam_sub_x:      DB 0
 203  80B4 00           bankswitch_ok:  DB 0        ; set to 1 if 128K paging available
 204  80B5
 205  80B5              ; Level map cache — filled at level load, read by GetTileAt
 206  80B5              ; Lives in fixed bank2 so no paging needed during rendering
 207  80B5 00 00 00...  level_map_cache: DS MAP_W * MAP_H, 0
 208  8375
 209  8375              ; ============================================================
 210  8375              ; ENTRY POINT  (address follows variables, after $8003)
 211  8375              ; ============================================================
 212  8375              GAME_START:
 213  8375 F3               di
 214  8376 31 FE BB         ld sp, $BBFE   ; Fix 26d: Stack in free gap ($841D-$BBFF) between LoadEnemySpawns
 215  8379                                 ; and HANDLER. Gap = 14307 bytes of DS-padded zeros, never executed.
 216  8379                                 ; Max stack depth ~128 bytes → reaches ~$BB7E, clear of code at $841C.
 217  8379                                 ; Previous $BF00 let stack reach $BEE8, inside MUSIC_OVERWORLD ($BE55).\n    ; Mark 128K paging as available (this is a 128K-only binary)
 218  8379 3E 01            ld a, 1
 219  837B 32 B4 80         ld (bankswitch_ok), a
 220  837E                  ; Fix 41: Initialise BANKM sysvar ($5B5C) to $17 = ROM1(bit4) + bank7(bits0-2).
 221  837E                  ; BankSwitch reads $5B5C, masks bits0-2, ORs in new bank, and writes the whole
 222  837E                  ; byte back to port $7FFD — so bit4 is automatically preserved on every bank
 223  837E                  ; switch as long as $5B5C is correct here.  This keeps ROM 1 (48K BASIC ROM)
 224  837E                  ; permanently paged, giving DrawCharXY_Real access to the ROM font at $3D00.
 225  837E 3E 17            ld a, $17
 226  8380 32 5C 5B         ld ($5B5C), a
 227  8383 CD 8F 83         call Setup_IM2       ; MUST run first: sets IM2 + EI so ClearScreen's
 228  8386                                       ; own EI fires into our handler, not IM0. (Fix 25c)
 229  8386 CD 9B BF         call ClearScreen
 230  8389 CD 76 BC         call AY_Silence
 231  838C C3 21 CE         jp MainLoop
 232  838F
 233  838F              ; ============================================================
 234  838F              ; IM2 SETUP
 235  838F              ; ============================================================
 236  838F              Setup_IM2:
 237  838F F3               di
 238  8390 21 00 7E         ld hl, IM2_TABLE
 239  8393 06 00            ld b, 0
 240  8395 3E BC            ld a, $BC
 241  8397              .fill:
 242  8397 77               ld (hl), a
 243  8398 23               inc hl
 244  8399 10 FC            djnz .fill
 245  839B 77               ld (hl), a
 246  839C 21 BC BC         ld hl, IM2_JUMP
 247  839F 36 C3            ld (hl), $C3
 248  83A1 23               inc hl
 249  83A2 36 00            ld (hl), low HANDLER_ADDR
 250  83A4 23               inc hl
 251  83A5 36 BC            ld (hl), high HANDLER_ADDR
 252  83A7 3E 7E            ld a, $7E
 253  83A9 ED 47            ld i, a
 254  83AB ED 5E            im 2
 255  83AD FB               ei
 256  83AE C9               ret
 257  83AF
 258  83AF              ; ============================================================
 259  83AF              ; LEVEL LOAD HELPERS — must live in bank2 (fixed) because
 260  83AF              ; InitLevel calls BankSwitch which pages out bank7.
 261  83AF              ; If these were in bank7 they'd vanish mid-execution.
 262  83AF              ; ============================================================
 263  83AF
 264  83AF              SetLevelMapPtr:
 265  83AF                  ; Returns HL = $C000 + level_num * MAP_W*MAP_H
 266  83AF 21 00 C0         ld hl, $C000
 267  83B2 3A 41 80         ld a, (level_num)
 268  83B5 B7               or a
 269  83B6 C8               ret z
 270  83B7 11 C0 02         ld de, MAP_W * MAP_H
 271  83BA 19               add hl, de
 272  83BB 3D               dec a
 273  83BC C8               ret z
 274  83BD 19               add hl, de
 275  83BE C9               ret
 276  83BF
 277  83BF              LoadLevelMap:
 278  83BF                  ; Copy level map from paged bank ($C000) → level_map_cache (bank2)
 279  83BF                  ; Level bank must already be paged in.
 280  83BF CD AF 83         call SetLevelMapPtr     ; HL = map start in paged bank
 281  83C2 11 B5 80         ld de, level_map_cache
 282  83C5 01 C0 02         ld bc, MAP_W * MAP_H
 283  83C8 ED B0            ldir
 284  83CA C9               ret
 285  83CB
 286  83CB              DoLevelBanking:
 287  83CB                  ; Called from InitLevel (bank7). MUST live in bank2 (fixed).
 288  83CB                  ; Pages in the level bank, loads map + spawns to bank2 caches, restores bank7.
 289  83CB                  ; Call convention: bank number already in cur_level_bank; level_num already set.
 290  83CB                  ; (Fix 25d: recreated bank2 shim — bank7 cannot call BankSwitch directly.)
 291  83CB 3A 45 80         ld a, (cur_level_bank)
 292  83CE CD 7B BF         call BankSwitch          ; pages out bank7 — safe because we are in bank2
 293  83D1 CD BF 83         call LoadLevelMap        ; reads from paged bank into level_map_cache (bank2)
 294  83D4 CD DD 83         call LoadEnemySpawns     ; reads spawn table into entity arrays (bank2)
 295  83D7 3E 07            ld a, 7
 296  83D9 CD 7B BF         call BankSwitch          ; restore bank7
 297  83DC C9               ret
 298  83DD
 299  83DD              LoadEnemySpawns:
 300  83DD                  ; Spawn table base: $C000 + 3*MAP_W*MAP_H, then +32 per level
 301  83DD 21 40 C8         ld hl, $C000 + 3 * MAP_W * MAP_H
 302  83E0 3A 41 80         ld a, (level_num)
 303  83E3 B7               or a
 304  83E4 28 07            jr z, .les_ready
 305  83E6 11 20 00         ld de, 32
 306  83E9              .les_off:
 307  83E9 19               add hl, de
 308  83EA 3D               dec a
 309  83EB 20 FC            jr nz, .les_off
 310  83ED              .les_ready:
 311  83ED 06 08            ld b, MAX_ENEMIES
 312  83EF 0E 00            ld c, 0
 313  83F1              .les_loop:
 314  83F1 7E               ld a, (hl)
 315  83F2 FE FF            cp $FF
 316  83F4 28 4B            jr z, .les_done
 317  83F6 B7               or a
 318  83F7 28 48            jr z, .les_done
 319  83F9
 320  83F9 E5               push hl
 321  83FA 21 48 80         ld hl, ent_type
 322  83FD 16 00            ld d, 0
 323  83FF 59               ld e, c
 324  8400 19               add hl, de
 325  8401 77               ld (hl), a
 326  8402 E1               pop hl
 327  8403
 328  8403 23               inc hl
 329  8404                  ; Fix 26c: 16-bit tile_x * 16. Previous code used 8-bit ADD A,A four times;
 330  8404                  ; tile_x >= 16 (e.g. tile 24*16=384=$180) overflowed, truncating to 8 bits.
 331  8404                  ; Use HL for full 16-bit result, store low byte to ent_xl, high to ent_xh.
 332  8404 7E               ld a, (hl)          ; tile_x (0..63)
 333  8405 E5               push hl             ; save spawn table pointer
 334  8406 6F               ld l, a
 335  8407 26 00            ld h, 0             ; HL = tile_x
 336  8409 29               add hl, hl          ; *2
 337  840A 29               add hl, hl          ; *4
 338  840B 29               add hl, hl          ; *8
 339  840C 29               add hl, hl          ; *16  → pixel_x (0..1008, needs 2 bytes)
 340  840D 16 00            ld d, 0
 341  840F 59               ld e, c             ; DE = entity_index
 342  8410 C5               push bc             ; CHANGED: Fix 45 — save B=loop_counter, C=entity_index before pop bc clobbers them
 343  8411 E5               push hl             ; save pixel_x
 344  8412 21 50 80         ld hl, ent_xl
 345  8415 19               add hl, de
 346  8416 C1               pop bc              ; B = pixel_x high byte, C = pixel_x low byte
 347  8417 71               ld (hl), c          ; ent_xl[idx] = low byte
 348  8418 21 58 80         ld hl, ent_xh
 349  841B 19               add hl, de          ; DE still = entity_index (set before push bc)
 350  841C 70               ld (hl), b          ; ent_xh[idx] = high byte
 351  841D C1               pop bc              ; CHANGED: Fix 45 — restore B=loop_counter, C=entity_index
 352  841E E1               pop hl              ; restore spawn table pointer
 353  841F
 354  841F 23               inc hl
 355  8420 7E               ld a, (hl)
 356  8421 87               add a, a
 357  8422 87               add a, a
 358  8423 87               add a, a
 359  8424 87               add a, a            ; A = tile_y * 16 (pixel Y of that tile row's top)
 360  8425 D6 0E            sub PLR_H           ; CHANGED: Fix 48 — place enemy feet at tile row top: y = tile_y*16 - height
 361  8427                                      ; tile_y=9 → 144-14=130; enemy body spans y=130-143, standing on row 9 at y=144
 362  8427 E5               push hl
 363  8428 21 60 80         ld hl, ent_yl
 364  842B 16 00            ld d, 0
 365  842D 59               ld e, c             ; CHANGED: Fix 45 — C is now correctly entity_index (restored above)
 366  842E 19               add hl, de
 367  842F 77               ld (hl), a
 368  8430
 369  8430 21 70 80         ld hl, ent_vx
 370  8433 19               add hl, de
 371  8434 36 FF            ld (hl), $FF
 372  8436
 373  8436 21 78 80         ld hl, ent_state
 374  8439 19               add hl, de
 375  843A 36 01            ld (hl), 1
 376  843C E1               pop hl
 377  843D
 378  843D 23               inc hl
 379  843E 0C               inc c               ; CHANGED: Fix 45 — C is now correctly entity_index (not pixel_x_low)
 380  843F 10 B0            djnz .les_loop      ; CHANGED: Fix 45 — B is now correctly loop_counter (not pixel_x_high)
 381  8441              .les_done:
 382  8441 C9               ret
 383  8442
 384  8442              ; ============================================================
 385  8442              ; INTERRUPT HANDLER
 386  8442              ; ============================================================
 387  8442                  ORG HANDLER_ADDR
 388  BC00
 389  BC00              HANDLER:
 390  BC00 F3               di
 391  BC01 F5               push af
 392  BC02 C5               push bc
 393  BC03 D5               push de
 394  BC04 E5               push hl
 395  BC05 DD E5            push ix
 396  BC07
 397  BC07 21 98 80         ld hl, frame_count
 398  BC0A 34               inc (hl)
 399  BC0B 20 02            jr nz, .no_hi
 400  BC0D 23               inc hl
 401  BC0E 34               inc (hl)
 402  BC0F              .no_hi:
 403  BC0F
 404  BC0F 3A 39 80         ld a, (game_state)
 405  BC12 FE 01            cp STATE_PLAYING
 406  BC14 20 13            jr nz, .no_timer
 407  BC16 21 44 80         ld hl, timer_cnt
 408  BC19 34               inc (hl)
 409  BC1A 7E               ld a, (hl)
 410  BC1B FE 32            cp 50
 411  BC1D 38 0A            jr c, .no_timer
 412  BC1F 36 00            ld (hl), 0
 413  BC21 21 42 80         ld hl, level_timer
 414  BC24 7E               ld a, (hl)
 415  BC25 B7               or a
 416  BC26 28 01            jr z, .no_timer
 417  BC28 35               dec (hl)
 418  BC29              .no_timer:
 419  BC29
 420  BC29                  ; Fix 67: Corrected keyboard matrix for $DF row.
 421  BC29                  ; $DF = port $DFFE. Bit layout: bit4=Y, bit3=U, bit2=I, bit1=O, bit0=P
 422  BC29                  ; Previous code used bit4=P and bit3=O — reading Y and U instead!
 423  BC29                  ; Port $7FFE (row $7F): bit0=Space (fire/jump) — unchanged, was correct.
 424  BC29 16 00            ld d, 0                 ; CHANGED: Fix 67 — D accumulates joy_held bits
 425  BC2B
 426  BC2B 3E DF            ld a, $DF               ; CHANGED: Fix 67 — port $DFFE
 427  BC2D DB FE            in a, ($FE)
 428  BC2F CB 47            bit 0, a                ; CHANGED: Fix 67 — P key = bit0 (was bit4=Y, wrong!)
 429  BC31 20 02            jr nz, .kbd_no_p
 430  BC33 CB C2            set 0, d                ; right bit
 431  BC35              .kbd_no_p:
 432  BC35 CB 4F            bit 1, a                ; CHANGED: Fix 67 — O key = bit1 (was bit3=U, wrong!)
 433  BC37 20 02            jr nz, .kbd_no_o
 434  BC39 CB CA            set 1, d                ; left bit
 435  BC3B              .kbd_no_o:
 436  BC3B 3E 7F            ld a, $7F               ; port $7FFE: Space=bit0 (unchanged — was correct)
 437  BC3D DB FE            in a, ($FE)
 438  BC3F CB 47            bit 0, a                ; Space key (active low = fire/jump)
 439  BC41 20 02            jr nz, .kbd_no_space
 440  BC43 CB E2            set 4, d                ; fire bit
 441  BC45              .kbd_no_space:
 442  BC45 7A               ld a, d                 ; A = complete joy_held byte
 443  BC46 32 95 80         ld (joy_held), a
 444  BC49 47               ld b, a
 445  BC4A 3A 97 80         ld a, (joy_prev)
 446  BC4D 2F               cpl
 447  BC4E A0               and b
 448  BC4F 32 96 80         ld (joy_new), a
 449  BC52 3A 95 80         ld a, (joy_held)
 450  BC55 32 97 80         ld (joy_prev), a
 451  BC58
 452  BC58 3A B1 80         ld a, (music_playing)
 453  BC5B B7               or a
 454  BC5C 28 03            jr z, .no_music
 455  BC5E CD F3 BC         call Music_Tick
 456  BC61              .no_music:
 457  BC61
 458  BC61 3A A8 80         ld a, (sfx_active)
 459  BC64 B7               or a
 460  BC65 28 03            jr z, .no_sfx
 461  BC67 CD 7F BD         call SFX_Tick
 462  BC6A              .no_sfx:
 463  BC6A
 464  BC6A CD C0 BC         call AY_WriteBuffer
 465  BC6D
 466  BC6D DD E1            pop ix
 467  BC6F E1               pop hl
 468  BC70 D1               pop de
 469  BC71 C1               pop bc
 470  BC72 F1               pop af
 471  BC73                  ; Fix 26a: EI is required before RETI.
 472  BC73                  ; DI at handler entry zeros BOTH IFF1 and IFF2. RETI only copies IFF2 back
 473  BC73                  ; to IFF1 — it does NOT re-enable interrupts by itself. Without EI, after
 474  BC73                  ; the first few startup interrupts complete, IFF1 stays 0 permanently.
 475  BC73                  ; HALT then spins forever (loops as NOP with interrupts off), joy_new never
 476  BC73                  ; updates, and the title screen never exits.
 477  BC73                  ; EI immediately before RETI is the standard Z80 pattern and is safe: the
 478  BC73                  ; Z80 guarantees at least one instruction executes after EI before an
 479  BC73                  ; interrupt can be taken — RETI counts as that instruction, so there is no
 480  BC73                  ; nested-interrupt window. (Fix 25a concern is resolved: the window only
 481  BC73                  ; opens when EI and RETI are NOT adjacent.)
 482  BC73 FB               ei
 483  BC74 ED 4D            reti
 484  BC76
 485  BC76              ; ============================================================
 486  BC76              ; AY ROUTINES
 487  BC76              ; ============================================================
 488  BC76
 489  BC76              AY_Silence:
 490  BC76 01 FD FF         ld bc, $FFFD
 491  BC79 3E 07            ld a, AY_MIXER
 492  BC7B ED 79            out (c), a
 493  BC7D 01 FD BF         ld bc, $BFFD
 494  BC80 3E FF            ld a, $FF
 495  BC82 ED 79            out (c), a
 496  BC84 01 FD FF         ld bc, $FFFD
 497  BC87 3E 08            ld a, AY_VOL_A
 498  BC89 ED 79            out (c), a
 499  BC8B 01 FD BF         ld bc, $BFFD
 500  BC8E AF               xor a
 501  BC8F ED 79            out (c), a
 502  BC91 01 FD FF         ld bc, $FFFD
 503  BC94 3E 09            ld a, AY_VOL_B
 504  BC96 ED 79            out (c), a
 505  BC98 01 FD BF         ld bc, $BFFD
 506  BC9B AF               xor a
 507  BC9C ED 79            out (c), a
 508  BC9E 01 FD FF         ld bc, $FFFD
 509  BCA1 3E 0A            ld a, AY_VOL_C
 510  BCA3 ED 79            out (c), a
 511  BCA5 01 FD BF         ld bc, $BFFD
 512  BCA8 AF               xor a
 513  BCA9 ED 79            out (c), a
 514  BCAB                  ; Fix 58: removed ay_buf[0..13] zeroing loop (14 bytes) — redundant because
 515  BCAB                  ; AY_WriteBuffer rewrites all 14 registers from ay_buf every HANDLER frame.
 516  BCAB                  ; Only ay_buf[AY_MIXER] matters: $FF keeps mixer silent on next WriteBuffer call.
 517  BCAB 3E FF            ld a, $FF               ; CHANGED: Fix 58 — keep only the mixer silent marker
 518  BCAD 32 A1 80         ld (ay_buf + AY_MIXER), a
 519  BCB0 C9               ret
 520  BCB1
 521  BCB1                  ; $BCB6-$BCBF: reserved gap for IM2 JP stub at $BCBC.
 522  BCB1                  ; Setup_IM2 and make_szx.py both write JP $BC00 at $BCBC-$BCBE.
 523  BCB1                  ; AY_WriteBuffer MUST start at $BCC0 so it is entirely past this stub.
 524  BCB1                  ; We pad here so the label naturally assembles at $BCC0.
 525  BCB1 00 00 00...      DS $BCC0 - $, 0
 526  BCC0
 527  BCC0              AY_WriteBuffer:
 528  BCC0 21 9A 80         ld hl, ay_buf
 529  BCC3 06 00            ld b, 0
 530  BCC5              .wr:
 531  BCC5 78               ld a, b
 532  BCC6 C5               push bc
 533  BCC7 01 FD FF         ld bc, $FFFD
 534  BCCA ED 79            out (c), a
 535  BCCC 7E               ld a, (hl)
 536  BCCD 01 FD BF         ld bc, $BFFD
 537  BCD0 ED 79            out (c), a
 538  BCD2 C1               pop bc
 539  BCD3 23               inc hl
 540  BCD4 04               inc b
 541  BCD5 78               ld a, b
 542  BCD6 FE 0E            cp 14
 543  BCD8 20 EB            jr nz, .wr
 544  BCDA C9               ret
 545  BCDB
 546  BCDB              ; ============================================================
 547  BCDB              ; MUSIC ENGINE
 548  BCDB              ; Note entry (6 bytes): period_lo, period_hi, vol_a, vol_b, vol_c, duration
 549  BCDB              ; Sequence ends with $FF, $FF
 550  BCDB              ; ============================================================
 551  BCDB
 552  BCDB              Music_Init:
 553  BCDB 22 AC 80         ld (music_ptr), hl
 554  BCDE 22 AE 80         ld (music_note_ptr), hl
 555  BCE1 AF               xor a
 556  BCE2 32 B0 80         ld (music_frame), a
 557  BCE5 3E 01            ld a, 1
 558  BCE7 32 B1 80         ld (music_playing), a
 559  BCEA C9               ret
 560  BCEB
 561  BCEB              Music_Stop:
 562  BCEB AF               xor a
 563  BCEC 32 B1 80         ld (music_playing), a
 564  BCEF CD 76 BC         call AY_Silence
 565  BCF2 C9               ret
 566  BCF3
 567  BCF3              Music_Tick:
 568  BCF3 E5               push hl
 569  BCF4 C5               push bc
 570  BCF5 D5               push de
 571  BCF6
 572  BCF6 2A AE 80         ld hl, (music_note_ptr)
 573  BCF9
 574  BCF9 7E               ld a, (hl)
 575  BCFA FE FF            cp $FF
 576  BCFC 20 12            jr nz, .mt_check_dur
 577  BCFE 23               inc hl
 578  BCFF 7E               ld a, (hl)
 579  BD00 FE FF            cp $FF
 580  BD02 20 0C            jr nz, .mt_check_dur
 581  BD04 2A AC 80         ld hl, (music_ptr)
 582  BD07 22 AE 80         ld (music_note_ptr), hl
 583  BD0A AF               xor a
 584  BD0B 32 B0 80         ld (music_frame), a
 585  BD0E 18 31            jr .mt_load
 586  BD10
 587  BD10              .mt_check_dur:
 588  BD10 E5               push hl
 589  BD11 01 05 00         ld bc, 5
 590  BD14 09               add hl, bc
 591  BD15 46               ld b, (hl)              ; duration
 592  BD16 E1               pop hl
 593  BD17 3A B0 80         ld a, (music_frame)
 594  BD1A 3C               inc a
 595  BD1B 32 B0 80         ld (music_frame), a
 596  BD1E B8               cp b
 597  BD1F 38 3D            jr c, .mt_still
 598  BD21
 599  BD21 01 06 00         ld bc, 6
 600  BD24 09               add hl, bc
 601  BD25 22 AE 80         ld (music_note_ptr), hl
 602  BD28 AF               xor a
 603  BD29 32 B0 80         ld (music_frame), a
 604  BD2C
 605  BD2C 7E               ld a, (hl)
 606  BD2D FE FF            cp $FF
 607  BD2F 20 10            jr nz, .mt_load
 608  BD31 23               inc hl
 609  BD32 7E               ld a, (hl)
 610  BD33 FE FF            cp $FF
 611  BD35 20 0A            jr nz, .mt_load
 612  BD37 2A AC 80         ld hl, (music_ptr)
 613  BD3A 22 AE 80         ld (music_note_ptr), hl
 614  BD3D AF               xor a
 615  BD3E 32 B0 80         ld (music_frame), a
 616  BD41
 617  BD41              .mt_load:
 618  BD41 7E               ld a, (hl)
 619  BD42 32 9A 80         ld (ay_buf + AY_FINE_A), a
 620  BD45 23               inc hl
 621  BD46 7E               ld a, (hl)
 622  BD47 32 9B 80         ld (ay_buf + AY_COARSE_A), a
 623  BD4A 23               inc hl
 624  BD4B 7E               ld a, (hl)
 625  BD4C 32 A2 80         ld (ay_buf + AY_VOL_A), a
 626  BD4F 23               inc hl
 627  BD50 7E               ld a, (hl)
 628  BD51 32 A3 80         ld (ay_buf + AY_VOL_B), a
 629  BD54 23               inc hl
 630  BD55 7E               ld a, (hl)
 631  BD56 32 A4 80         ld (ay_buf + AY_VOL_C), a
 632  BD59 3E FE            ld a, %11111110
 633  BD5B 32 A1 80         ld (ay_buf + AY_MIXER), a
 634  BD5E
 635  BD5E              .mt_still:
 636  BD5E D1               pop de
 637  BD5F C1               pop bc
 638  BD60 E1               pop hl
 639  BD61 C9               ret
 640  BD62
 641  BD62              ; ============================================================
 642  BD62              ; SFX ENGINE (channel C)
 643  BD62              ; SFX entry (4 bytes): period_lo, period_hi, vol, duration
 644  BD62              ; Ends with $FF
 645  BD62              ; ============================================================
 646  BD62
 647  BD62              SFX_Play:
 648  BD62                  ; A = SFX index
 649  BD62 E5               push hl
 650  BD63 D5               push de
 651  BD64 21 D1 BD         ld hl, SFX_TABLE
 652  BD67 16 00            ld d, 0
 653  BD69 5F               ld e, a
 654  BD6A 19               add hl, de
 655  BD6B 19               add hl, de
 656  BD6C 5E               ld e, (hl)
 657  BD6D 23               inc hl
 658  BD6E 56               ld d, (hl)
 659  BD6F ED 53 A9 80      ld (sfx_ptr), de
 660  BD73 AF               xor a
 661  BD74 32 AB 80         ld (sfx_frame), a
 662  BD77 3E 01            ld a, 1
 663  BD79 32 A8 80         ld (sfx_active), a
 664  BD7C D1               pop de
 665  BD7D E1               pop hl
 666  BD7E C9               ret
 667  BD7F
 668  BD7F              SFX_Tick:
 669  BD7F E5               push hl
 670  BD80 D5               push de
 671  BD81 C5               push bc
 672  BD82
 673  BD82 2A A9 80         ld hl, (sfx_ptr)
 674  BD85 7E               ld a, (hl)
 675  BD86 FE FF            cp $FF
 676  BD88 28 34            jr z, .st_done
 677  BD8A
 678  BD8A 5E               ld e, (hl)
 679  BD8B 23               inc hl
 680  BD8C 56               ld d, (hl)
 681  BD8D 23               inc hl
 682  BD8E 7E               ld a, (hl)
 683  BD8F 32 A4 80         ld (ay_buf + AY_VOL_C), a
 684  BD92 23               inc hl
 685  BD93 46               ld b, (hl)
 686  BD94
 687  BD94 21 AB 80         ld hl, sfx_frame
 688  BD97 34               inc (hl)
 689  BD98 7E               ld a, (hl)
 690  BD99 B8               cp b
 691  BD9A 38 0E            jr c, .st_write
 692  BD9C
 693  BD9C 2A A9 80         ld hl, (sfx_ptr)
 694  BD9F 01 04 00         ld bc, 4
 695  BDA2 09               add hl, bc
 696  BDA3 22 A9 80         ld (sfx_ptr), hl
 697  BDA6 AF               xor a
 698  BDA7 32 AB 80         ld (sfx_frame), a
 699  BDAA
 700  BDAA              .st_write:
 701  BDAA 7B               ld a, e
 702  BDAB 32 9E 80         ld (ay_buf + AY_FINE_C), a
 703  BDAE 7A               ld a, d
 704  BDAF 32 9F 80         ld (ay_buf + AY_COARSE_C), a
 705  BDB2 3A A1 80         ld a, (ay_buf + AY_MIXER)
 706  BDB5 E6 FB            and %11111011
 707  BDB7 32 A1 80         ld (ay_buf + AY_MIXER), a
 708  BDBA C1               pop bc
 709  BDBB D1               pop de
 710  BDBC E1               pop hl
 711  BDBD C9               ret
 712  BDBE
 713  BDBE              .st_done:
 714  BDBE AF               xor a
 715  BDBF 32 A8 80         ld (sfx_active), a
 716  BDC2 32 A4 80         ld (ay_buf + AY_VOL_C), a
 717  BDC5 3A A1 80         ld a, (ay_buf + AY_MIXER)
 718  BDC8 F6 04            or %00000100
 719  BDCA 32 A1 80         ld (ay_buf + AY_MIXER), a
 720  BDCD C1               pop bc
 721  BDCE D1               pop de
 722  BDCF E1               pop hl
 723  BDD0 C9               ret
 724  BDD1
 725  BDD1              SFX_TABLE:
 726  BDD1 E1 BD            DW SFX_DATA_JUMP
 727  BDD3 EE BD            DW SFX_DATA_COIN
 728  BDD5 F7 BD            DW SFX_DATA_BUMP
 729  BDD7 00 BE            DW SFX_DATA_STOMP
 730  BDD9 09 BE            DW SFX_DATA_DIE
 731  BDDB 22 BE            DW SFX_DATA_POWERUP
 732  BDDD 33 BE            DW SFX_DATA_BOSSHIT
 733  BDDF 3C BE            DW SFX_DATA_LVLEND
 734  BDE1
 735  BDE1              SFX_DATA_JUMP:
 736  BDE1 A8 00 0C 03      DEFB low NOTE_E5, high NOTE_E5, 12, 3
 737  BDE5 8D 00 0A 03      DEFB low NOTE_G5, high NOTE_G5, 10, 3
 738  BDE9 6A 00 08 04      DEFB low NOTE_C6, high NOTE_C6,  8, 4
 739  BDED FF               DEFB $FF
 740  BDEE
 741  BDEE              SFX_DATA_COIN:
 742  BDEE 8D 00 0E 02      DEFB low NOTE_G5, high NOTE_G5, 14, 2
 743  BDF2 6A 00 0E 04      DEFB low NOTE_C6, high NOTE_C6, 14, 4
 744  BDF6 FF               DEFB $FF
 745  BDF7
 746  BDF7              SFX_DATA_BUMP:
 747  BDF7 A8 01 0C 03      DEFB low NOTE_C4, high NOTE_C4, 12, 3
 748  BDFB FC 00 0A 03      DEFB low NOTE_A4, high NOTE_A4, 10, 3
 749  BDFF FF               DEFB $FF
 750  BE00
 751  BE00              SFX_DATA_STOMP:
 752  BE00 FC 00 0C 02      DEFB low NOTE_A4, high NOTE_A4, 12, 2
 753  BE04 50 01 08 03      DEFB low NOTE_E4, high NOTE_E4,  8, 3
 754  BE08 FF               DEFB $FF
 755  BE09
 756  BE09              SFX_DATA_DIE:
 757  BE09 7E 00 0F 04      DEFB low NOTE_A5, high NOTE_A5, 15, 4
 758  BE0D 8D 00 0D 03      DEFB low NOTE_G5, high NOTE_G5, 13, 3
 759  BE11 9F 00 0B 03      DEFB low NOTE_F5, high NOTE_F5, 11, 3
 760  BE15 A8 00 09 04      DEFB low NOTE_E5, high NOTE_E5,  9, 4
 761  BE19 BD 00 07 04      DEFB low NOTE_D5, high NOTE_D5,  7, 4
 762  BE1D D4 00 05 06      DEFB low NOTE_C5, high NOTE_C5,  5, 6
 763  BE21 FF               DEFB $FF
 764  BE22
 765  BE22              SFX_DATA_POWERUP:
 766  BE22 D4 00 0C 02      DEFB low NOTE_C5, high NOTE_C5, 12, 2
 767  BE26 A8 00 0C 02      DEFB low NOTE_E5, high NOTE_E5, 12, 2
 768  BE2A 8D 00 0C 02      DEFB low NOTE_G5, high NOTE_G5, 12, 2
 769  BE2E 6A 00 0C 06      DEFB low NOTE_C6, high NOTE_C6, 12, 6
 770  BE32 FF               DEFB $FF
 771  BE33
 772  BE33              SFX_DATA_BOSSHIT:
 773  BE33 79 01 0F 02      DEFB low NOTE_D4, high NOTE_D4, 15, 2
 774  BE37 FC 00 0C 03      DEFB low NOTE_A4, high NOTE_A4, 12, 3
 775  BE3B FF               DEFB $FF
 776  BE3C
 777  BE3C              SFX_DATA_LVLEND:
 778  BE3C D4 00 0E 03      DEFB low NOTE_C5, high NOTE_C5, 14, 3
 779  BE40 A8 00 0E 03      DEFB low NOTE_E5, high NOTE_E5, 14, 3
 780  BE44 8D 00 0E 03      DEFB low NOTE_G5, high NOTE_G5, 14, 3
 781  BE48 6A 00 0E 08      DEFB low NOTE_C6, high NOTE_C6, 14, 8
 782  BE4C 6A 00 00 03      DEFB low NOTE_C6, high NOTE_C6,  0, 3
 783  BE50 6A 00 0E 0A      DEFB low NOTE_C6, high NOTE_C6, 14,10
 784  BE54 FF               DEFB $FF
 785  BE55
 786  BE55              ; ============================================================
 787  BE55              ; MUSIC DATA
 788  BE55              ; ============================================================
 789  BE55              ; ============================================================
 790  BE55              ; MUSIC DATA — all tunes are original compositions.
 791  BE55              ; Fix 30: previous tracks were the SMB1 overworld/underground/title themes,
 792  BE55              ; which are copyright Nintendo. Replaced with original material.
 793  BE55              ;
 794  BE55              ; Format per note: period_lo, period_hi, vol_A, vol_B, vol_C, duration
 795  BE55              ; period = AY period for desired pitch (AY clock 1,773,400 Hz)
 796  BE55              ; vol 0..15 (0=silent); duration in 50Hz frames; $FF,$FF = loop
 797  BE55              ; ============================================================
 798  BE55
 799  BE55              ; MUSIC_OVERWORLD — original upbeat D-major loop
 800  BE55              ;   Phrase A: D5 F#5 A5 D6 | A5 F#5 D5 rest
 801  BE55              ;   Phrase B: G5 B5 D6  B5 | A5 G5  F#5 rest  (loop)
 802  BE55              ;   NOTE_F5 used as F#5 approximation (close enough on AY at this tempo)
 803  BE55              MUSIC_OVERWORLD:
 804  BE55 BD 00 0B 00      DEFB low NOTE_D5,  high NOTE_D5,  11, 0, 0,  4   ; D5
 804  BE59 00 04
 805  BE5B 9F 00 0C 00      DEFB low NOTE_F5,  high NOTE_F5,  12, 0, 0,  4   ; F5 (~F#5)
 805  BE5F 00 04
 806  BE61 7E 00 0D 00      DEFB low NOTE_A5,  high NOTE_A5,  13, 0, 0,  4   ; A5
 806  BE65 00 04
 807  BE67 5E 00 0E 00      DEFB low NOTE_D6,  high NOTE_D6,  14, 0, 0,  6   ; D6
 807  BE6B 00 06
 808  BE6D 00 00 00 00      DEFB low NOTE_REST,0,               0, 0, 0,  2
 808  BE71 00 02
 809  BE73 7E 00 0D 00      DEFB low NOTE_A5,  high NOTE_A5,  13, 0, 0,  4   ; A5
 809  BE77 00 04
 810  BE79 9F 00 0C 00      DEFB low NOTE_F5,  high NOTE_F5,  12, 0, 0,  4   ; F5
 810  BE7D 00 04
 811  BE7F BD 00 0B 00      DEFB low NOTE_D5,  high NOTE_D5,  11, 0, 0,  6   ; D5
 811  BE83 00 06
 812  BE85 00 00 00 00      DEFB low NOTE_REST,0,               0, 0, 0,  4
 812  BE89 00 04
 813  BE8B 8D 00 0C 00      DEFB low NOTE_G5,  high NOTE_G5,  12, 0, 0,  4   ; G5
 813  BE8F 00 04
 814  BE91 70 00 0D 00      DEFB low NOTE_B5,  high NOTE_B5,  13, 0, 0,  4   ; B5
 814  BE95 00 04
 815  BE97 5E 00 0E 00      DEFB low NOTE_D6,  high NOTE_D6,  14, 0, 0,  4   ; D6
 815  BE9B 00 04
 816  BE9D 70 00 0D 00      DEFB low NOTE_B5,  high NOTE_B5,  13, 0, 0,  6   ; B5
 816  BEA1 00 06
 817  BEA3 00 00 00 00      DEFB low NOTE_REST,0,               0, 0, 0,  2
 817  BEA7 00 02
 818  BEA9 7E 00 0D 00      DEFB low NOTE_A5,  high NOTE_A5,  13, 0, 0,  4   ; A5
 818  BEAD 00 04
 819  BEAF 8D 00 0C 00      DEFB low NOTE_G5,  high NOTE_G5,  12, 0, 0,  4   ; G5
 819  BEB3 00 04
 820  BEB5 9F 00 0B 00      DEFB low NOTE_F5,  high NOTE_F5,  11, 0, 0,  4   ; F5
 820  BEB9 00 04
 821  BEBB BD 00 0A 00      DEFB low NOTE_D5,  high NOTE_D5,  10, 0, 0,  8   ; D5 (long)
 821  BEBF 00 08
 822  BEC1 00 00 00 00      DEFB low NOTE_REST,0,               0, 0, 0,  4
 822  BEC5 00 04
 823  BEC7 FF FF            DEFB $FF, $FF
 824  BEC9
 825  BEC9              ; MUSIC_BOSS — original tense A-minor phrase
 826  BEC9              ;   Driving staccato feel, minor tonality, clearly different from anything Nintendo
 827  BEC9              MUSIC_BOSS:
 828  BEC9 FC 00 0E 00      DEFB low NOTE_A4,  high NOTE_A4,  14, 0, 0,  2   ; A4 short
 828  BECD 00 02
 829  BECF 00 00 00 00      DEFB low NOTE_REST,0,               0, 0, 0,  1
 829  BED3 00 01
 830  BED5 D4 00 0D 00      DEFB low NOTE_C5,  high NOTE_C5,  13, 0, 0,  2   ; C5
 830  BED9 00 02
 831  BEDB 00 00 00 00      DEFB low NOTE_REST,0,               0, 0, 0,  1
 831  BEDF 00 01
 832  BEE1 B2 00 0C 00      DEFB low NOTE_Eb5, high NOTE_Eb5, 12, 0, 0,  3   ; Eb5 (tritone)
 832  BEE5 00 03
 833  BEE7 00 00 00 00      DEFB low NOTE_REST,0,               0, 0, 0,  2
 833  BEEB 00 02
 834  BEED BD 00 0B 00      DEFB low NOTE_D5,  high NOTE_D5,  11, 0, 0,  2   ; D5
 834  BEF1 00 02
 835  BEF3 D4 00 0C 00      DEFB low NOTE_C5,  high NOTE_C5,  12, 0, 0,  2   ; C5
 835  BEF7 00 02
 836  BEF9 E0 00 0D 00      DEFB low NOTE_B4,  high NOTE_B4,  13, 0, 0,  4   ; B4
 836  BEFD 00 04
 837  BEFF 00 00 00 00      DEFB low NOTE_REST,0,               0, 0, 0,  2
 837  BF03 00 02
 838  BF05 1B 01 0B 00      DEFB low NOTE_G4,  high NOTE_G4,  11, 0, 0,  2   ; G4
 838  BF09 00 02
 839  BF0B FC 00 0C 00      DEFB low NOTE_A4,  high NOTE_A4,  12, 0, 0,  2   ; A4
 839  BF0F 00 02
 840  BF11 EE 00 0E 00      DEFB low NOTE_Bb4, high NOTE_Bb4, 14, 0, 0,  6   ; Bb4 (tension)
 840  BF15 00 06
 841  BF17 00 00 00 00      DEFB low NOTE_REST,0,               0, 0, 0,  3
 841  BF1B 00 03
 842  BF1D FF FF            DEFB $FF, $FF
 843  BF1F
 844  BF1F              ; MUSIC_TITLE — original short rising fanfare in C major
 845  BF1F              ;   Steady ascending motif, clear and bright, original composition
 846  BF1F              MUSIC_TITLE:
 847  BF1F D4 00 0C 00      DEFB low NOTE_C5,  high NOTE_C5,  12, 0, 0,  3   ; C5
 847  BF23 00 03
 848  BF25 BD 00 0C 00      DEFB low NOTE_D5,  high NOTE_D5,  12, 0, 0,  3   ; D5
 848  BF29 00 03
 849  BF2B A8 00 0D 00      DEFB low NOTE_E5,  high NOTE_E5,  13, 0, 0,  3   ; E5
 849  BF2F 00 03
 850  BF31 8D 00 0D 00      DEFB low NOTE_G5,  high NOTE_G5,  13, 0, 0,  5   ; G5
 850  BF35 00 05
 851  BF37 00 00 00 00      DEFB low NOTE_REST,0,               0, 0, 0,  2
 851  BF3B 00 02
 852  BF3D 7E 00 0D 00      DEFB low NOTE_A5,  high NOTE_A5,  13, 0, 0,  3   ; A5
 852  BF41 00 03
 853  BF43 8D 00 0C 00      DEFB low NOTE_G5,  high NOTE_G5,  12, 0, 0,  3   ; G5
 853  BF47 00 03
 854  BF49 A8 00 0C 00      DEFB low NOTE_E5,  high NOTE_E5,  12, 0, 0,  3   ; E5
 854  BF4D 00 03
 855  BF4F D4 00 0B 00      DEFB low NOTE_C5,  high NOTE_C5,  11, 0, 0,  3   ; C5
 855  BF53 00 03
 856  BF55 1B 01 0A 00      DEFB low NOTE_G4,  high NOTE_G4,  10, 0, 0,  5   ; G4
 856  BF59 00 05
 857  BF5B 00 00 00 00      DEFB low NOTE_REST,0,               0, 0, 0,  3
 857  BF5F 00 03
 858  BF61 D4 00 0D 00      DEFB low NOTE_C5,  high NOTE_C5,  13, 0, 0,  3   ; C5
 858  BF65 00 03
 859  BF67 A8 00 0D 00      DEFB low NOTE_E5,  high NOTE_E5,  13, 0, 0,  3   ; E5
 859  BF6B 00 03
 860  BF6D 8D 00 0E 00      DEFB low NOTE_G5,  high NOTE_G5,  14, 0, 0,  8   ; G5 long
 860  BF71 00 08
 861  BF73 00 00 00 00      DEFB low NOTE_REST,0,               0, 0, 0,  4
 861  BF77 00 04
 862  BF79 FF FF            DEFB $FF, $FF
 863  BF7B
 864  BF7B              ; ============================================================
 865  BF7B              ; BANK SWITCH — A = bank number 0-7
 866  BF7B              ; Skips the port write if bankswitch_ok=0 (48K/SNA mode)
 867  BF7B              ; ============================================================
 868  BF7B              BankSwitch:
 869  BF7B F3               di
 870  BF7C C5               push bc
 871  BF7D F5               push af
 872  BF7E 47               ld b, a
 873  BF7F 3A B4 80         ld a, (bankswitch_ok)
 874  BF82 B7               or a
 875  BF83 28 12            jr z, .bs_skip          ; 48K mode: skip port write
 876  BF85 78               ld a, b
 877  BF86 E6 07            and $07
 878  BF88 47               ld b, a
 879  BF89 3A 5C 5B         ld a, ($5B5C)
 880  BF8C E6 F8            and $F8
 881  BF8E B0               or b
 882  BF8F 32 5C 5B         ld ($5B5C), a
 883  BF92 01 FD 7F         ld bc, $7FFD
 884  BF95 ED 79            out (c), a
 885  BF97              .bs_skip:
 886  BF97 F1               pop af
 887  BF98 C1               pop bc
 888  BF99 FB               ei
 889  BF9A C9               ret
 890  BF9B
 891  BF9B              ; ============================================================
 892  BF9B              ; CLEAR SCREEN
 893  BF9B              ; ============================================================
 894  BF9B              ClearScreen:
 895  BF9B F3               di                      ; disable interrupts — an interrupt firing mid-ldir
 896  BF9C                                          ; corrupts the return address on the stack
 897  BF9C 21 00 40         ld hl, SCREEN_BASE
 898  BF9F 11 01 40         ld de, SCREEN_BASE+1
 899  BFA2 01 FF 1A         ld bc, SCREEN_SIZE-1
 900  BFA5 36 00            ld (hl), 0
 901  BFA7 ED B0            ldir
 902  BFA9 21 00 58         ld hl, ATTR_BASE
 903  BFAC 11 01 58         ld de, ATTR_BASE+1
 904  BFAF 01 FF 02         ld bc, 767
 905  BFB2 36 47            ld (hl), ATTR_SKY
 906  BFB4 ED B0            ldir
 907  BFB6 3E 01            ld a, 1
 908  BFB8 D3 FE            out (PORT_ULA), a
 909  BFBA FB               ei                      ; re-enable interrupts before returning
 910  BFBB C9               ret
 911  BFBC
 912  BFBC              ; ============================================================
 913  BFBC              ; PIXEL ADDRESS — B=pixel row → HL=screen address (col 0)
 914  BFBC              ; ============================================================
 915  BFBC              PixelAddr:
 916  BFBC 78               ld a, b
 917  BFBD E6 C0            and $C0
 918  BFBF 0F               rrca
 919  BFC0 0F               rrca
 920  BFC1 0F               rrca
 921  BFC2 67               ld h, a
 922  BFC3 78               ld a, b
 923  BFC4 E6 07            and $07
 924  BFC6 0F               rrca
 925  BFC7 0F               rrca
 926  BFC8 0F               rrca
 927  BFC9 B4               or h
 928  BFCA F6 40            or $40
 929  BFCC 67               ld h, a
 930  BFCD 78               ld a, b
 931  BFCE E6 38            and $38
 932  BFD0 87               add a, a
 933  BFD1 87               add a, a
 934  BFD2 6F               ld l, a
 935  BFD3 C9               ret
 936  BFD4
 937  BFD4              ; ============================================================
 938  BFD4              ; DrawCharXY trampoline — PINNED at $BFFD.
 939  BFD4              ; JP nn is 3 bytes: $BFFD/$BFFE/$BFFF — the last safe slot
 940  BFD4              ; entirely within bank2. Adding code above? Check for overlap.
 941  BFD4              ; ============================================================
 942  BFD4                  ORG $BFFD
 943  BFFD              DrawCharXY:
 944  BFFD C3 00 C0         jp DrawCharXY_Real
 945  C000
 946  C000              ; ============================================================
 947  C000              ; BANK 7 — CODE OVERFLOW ($C000-$FFFF when bank 7 paged)
 948  C000              ; Always paged during gameplay. Bank2 ($8000-$BFFF) is fixed.
 949  C000              ; DrawCharXY trampoline in bank2 jumps here.
 950  C000              ; ============================================================
 951  C000                  PAGE 7
 952  C000                  ORG $C000
 953  C000
 954  C000              DrawCharXY_Real:
 955  C000 E5               push hl
 956  C001 D5               push de
 957  C002 C5               push bc
 958  C003 DD E5            push ix
 959  C005 F5               push af
 960  C006
 961  C006                  ; Reject control characters (< 32)
 962  C006 D6 20            sub 32
 963  C008 DA 67 C0         jp c, .dcxy_skip        ; char < 32: nothing to draw
 964  C00B
 965  C00B                  ; A = char - 32 (range 0..223)
 966  C00B                  ; Split on original char value:
 967  C00B                  ;   char 32-127  (A  0..95): standard ASCII — ROM 1 font at $3D00
 968  C00B                  ;   char 128-255 (A 96..223): custom tiles  — FONT_DATA in bank2
 969  C00B                  ;
 970  C00B                  ; Fix 41: ROM 1 (48K BASIC ROM) is permanently paged via BANKM/BankSwitch.
 971  C00B                  ; $3D00 in ROM 1 = font bitmap for ASCII 32 (space).
 972  C00B                  ; Formula: ptr = $3D00 + (char-32)*8  =  $3D00 + A*8
 973  C00B                  ; No DI/EI or runtime page-switching needed — ROM 1 is always present.
 974  C00B                  ;
 975  C00B                  ; FONT_DATA (bank2, $8E00+) holds bitmaps for custom chars 128-255.
 976  C00B                  ; Formula: ptr = FONT_DATA + (char-128)*8  =  FONT_DATA + (A-96)*8
 977  C00B
 978  C00B FE 60            cp 96
 979  C00D 30 0F            jr nc, .dcxy_custom
 980  C00F
 981  C00F                  ; ── Standard ASCII 32-127 ── ROM 1 font ──────────────────────────────
 982  C00F 6F               ld l, a
 983  C010 26 00            ld h, 0
 984  C012 29               add hl, hl
 985  C013 29               add hl, hl
 986  C014 29               add hl, hl              ; HL = (char-32) * 8
 987  C015 11 00 3D         ld de, $3D00            ; ROM 1 font base (48K BASIC ROM)
 988  C018 19               add hl, de              ; HL = $3D00 + (char-32)*8
 989  C019 E5               push hl
 990  C01A DD E1            pop ix
 991  C01C 18 0F            jr .dcxy_draw
 992  C01E
 993  C01E              .dcxy_custom:
 994  C01E                  ; ── Custom char 128-255 ── FONT_DATA ─────────────────────────────────
 995  C01E D6 60            sub 96                  ; A = char - 128  (0..127)
 996  C020 6F               ld l, a
 997  C021 26 00            ld h, 0
 998  C023 29               add hl, hl
 999  C024 29               add hl, hl
1000  C025 29               add hl, hl              ; HL = (char-128) * 8
1001  C026 11 00 8E         ld de, FONT_DATA
1002  C029 19               add hl, de              ; HL = FONT_DATA + (char-128)*8
1003  C02A E5               push hl
1004  C02B DD E1            pop ix
1005  C02D
1006  C02D              .dcxy_draw:
1007  C02D
1008  C02D 79               ld a, c
1009  C02E 87               add a, a
1010  C02F 87               add a, a
1011  C030 87               add a, a
1012  C031 5F               ld e, a
1013  C032 E6 C0            and $C0
1014  C034 0F               rrca
1015  C035 0F               rrca
1016  C036 0F               rrca
1017  C037 57               ld d, a
1018  C038 7B               ld a, e
1019  C039 E6 07            and $07
1020  C03B 0F               rrca
1021  C03C 0F               rrca
1022  C03D 0F               rrca
1023  C03E B2               or d
1024  C03F F6 40            or $40
1025  C041 57               ld d, a
1026  C042 7B               ld a, e
1027  C043 E6 38            and $38
1028  C045 87               add a, a
1029  C046 87               add a, a
1030  C047 5F               ld e, a
1031  C048 78               ld a, b
1032  C049 E6 1F            and $1F
1033  C04B B3               or e
1034  C04C 5F               ld e, a
1035  C04D
1036  C04D 06 08            ld b, 8
1037  C04F              .dcxy_row:
1038  C04F DD 7E 00         ld a, (ix+0)
1039  C052 12               ld (de), a
1040  C053 DD 23            inc ix
1041  C055 14               inc d
1042  C056 7A               ld a, d
1043  C057 E6 07            and $07
1044  C059 20 0A            jr nz, .dcxy_cont
1045  C05B 7B               ld a, e
1046  C05C C6 20            add a, $20
1047  C05E 5F               ld e, a
1048  C05F                  ; Fix 28: same inverted carry as Fix 27 (DrawTile/DrawSprite). jr nc -> jr c.
1049  C05F 38 04            jr c, .dcxy_cont
1050  C061 7A               ld a, d
1051  C062 D6 08            sub $08
1052  C064 57               ld d, a
1053  C065              .dcxy_cont:
1054  C065 10 E8            djnz .dcxy_row
1055  C067
1056  C067              .dcxy_skip:
1057  C067 F1               pop af
1058  C068 DD E1            pop ix
1059  C06A C1               pop bc
1060  C06B D1               pop de
1061  C06C E1               pop hl
1062  C06D C9               ret
1063  C06E
1064  C06E              DrawString:
1065  C06E F5               push af
1066  C06F C5               push bc
1067  C070              .dstr_loop:
1068  C070 7E               ld a, (hl)
1069  C071 B7               or a
1070  C072 28 07            jr z, .dstr_done
1071  C074 CD FD BF         call DrawCharXY
1072  C077 23               inc hl
1073  C078 04               inc b
1074  C079 18 F5            jr .dstr_loop
1075  C07B              .dstr_done:
1076  C07B C1               pop bc
1077  C07C F1               pop af
1078  C07D C9               ret
1079  C07E
1080  C07E              DrawDigit:
1081  C07E                  ; A=0-9, B=col, C=row
1082  C07E C6 30            add a, '0'
1083  C080 C3 FD BF         jp DrawCharXY
1084  C083
1085  C083              DrawDecimal2:
1086  C083                  ; A=0-99, B=col, C=row
1087  C083 F5               push af
1088  C084 C5               push bc
1089  C085 16 00            ld d, 0
1090  C087              .dd2_tens:
1091  C087 FE 0A            cp 10
1092  C089 38 05            jr c, .dd2_got
1093  C08B D6 0A            sub 10
1094  C08D 14               inc d
1095  C08E 18 F7            jr .dd2_tens
1096  C090              .dd2_got:
1097  C090 F5               push af
1098  C091 7A               ld a, d
1099  C092 C6 30            add a, '0'
1100  C094 CD FD BF         call DrawCharXY
1101  C097 04               inc b
1102  C098 F1               pop af
1103  C099 C6 30            add a, '0'
1104  C09B CD FD BF         call DrawCharXY
1105  C09E C1               pop bc
1106  C09F F1               pop af
1107  C0A0 C9               ret
1108  C0A1
1109  C0A1              DrawDecimal3:
1110  C0A1                  ; A=0-199, B=col, C=row  (used for level timer display)
1111  C0A1 F5               push af
1112  C0A2 C5               push bc
1113  C0A3                  ; hundreds digit
1114  C0A3 16 00            ld d, 0
1115  C0A5 FE 64            cp 100
1116  C0A7 38 03            jr c, .dd3_u
1117  C0A9 D6 64            sub 100
1118  C0AB 14               inc d
1119  C0AC              .dd3_u:
1120  C0AC F5               push af
1121  C0AD 7A               ld a, d
1122  C0AE C6 30            add a, '0'
1123  C0B0 CD FD BF         call DrawCharXY
1124  C0B3 04               inc b
1125  C0B4 F1               pop af
1126  C0B5                  ; tens digit
1127  C0B5 16 00            ld d, 0
1128  C0B7              .dd3_tens:
1129  C0B7 FE 0A            cp 10
1130  C0B9 38 05            jr c, .dd3_got
1131  C0BB D6 0A            sub 10
1132  C0BD 14               inc d
1133  C0BE 18 F7            jr .dd3_tens
1134  C0C0              .dd3_got:
1135  C0C0 F5               push af
1136  C0C1 7A               ld a, d
1137  C0C2 C6 30            add a, '0'
1138  C0C4 CD FD BF         call DrawCharXY
1139  C0C7 04               inc b
1140  C0C8 F1               pop af
1141  C0C9 C6 30            add a, '0'
1142  C0CB CD FD BF         call DrawCharXY
1143  C0CE C1               pop bc
1144  C0CF F1               pop af
1145  C0D0 C9               ret
1146  C0D1
1147  C0D1              ; ============================================================
1148  C0D1              ; TILE ATTRIBUTE TABLE
1149  C0D1              ; ============================================================
1150  C0D1              TILE_ATTR_TAB:
1151  C0D1 47               DEFB ATTR_SKY       ; 0 air
1152  C0D2 F0               DEFB ATTR_GROUND_C  ; 1 ground
1153  C0D3 16               DEFB ATTR_BRICK_C   ; 2 brick
1154  C0D4 F2               DEFB ATTR_QBLOCK_C  ; 3 Q-block
1155  C0D5 E0               DEFB ATTR_PIPE_C    ; 4 pipe top
1156  C0D6 E0               DEFB ATTR_PIPE_C    ; 5 pipe body
1157  C0D7 E7               DEFB ATTR_FLAG_C    ; 6 flag
1158  C0D8 47               DEFB ATTR_SKY       ; 7 solid invisible
1159  C0D9 38               DEFB ATTR_USEDQ_C   ; 8 used Q-block
1160  C0DA F0               DEFB ATTR_CASTLE_C  ; 9 castle
1161  C0DB
1162  C0DB              GetTileAttr:
1163  C0DB                  ; A = tile ID → returns A = attribute byte
1164  C0DB 21 D1 C0         ld hl, TILE_ATTR_TAB
1165  C0DE 16 00            ld d, 0
1166  C0E0 5F               ld e, a
1167  C0E1 19               add hl, de
1168  C0E2 7E               ld a, (hl)
1169  C0E3 C9               ret
1170  C0E4
1171  C0E4              ; ============================================================
1172  C0E4              ; TILE PIXEL DATA — 10 tiles × 32 bytes each
1173  C0E4              ; ============================================================
1174  C0E4              TILE_DATA:
1175  C0E4
1176  C0E4              ; 0: Air
1177  C0E4 00 00 00...      DS 32, 0
1178  C104
1179  C104              ; 1: Ground
1180  C104 FF FF            DEFB %11111111,%11111111
1181  C106 82 08            DEFB %10000010,%00001000
1182  C108 92 49            DEFB %10010010,%01001001
1183  C10A FF FF            DEFB %11111111,%11111111
1184  C10C CC CC            DEFB %11001100,%11001100
1185  C10E CC CC            DEFB %11001100,%11001100
1186  C110 FF FF            DEFB %11111111,%11111111
1187  C112 82 08            DEFB %10000010,%00001000
1188  C114 92 49            DEFB %10010010,%01001001
1189  C116 FF FF            DEFB %11111111,%11111111
1190  C118 CC CC            DEFB %11001100,%11001100
1191  C11A CC CC            DEFB %11001100,%11001100
1192  C11C FF FF            DEFB %11111111,%11111111
1193  C11E 82 08            DEFB %10000010,%00001000
1194  C120 92 49            DEFB %10010010,%01001001
1195  C122 FF FF            DEFB %11111111,%11111111
1196  C124
1197  C124              ; 2: Brick
1198  C124 FF FE            DEFB %11111111,%11111110
1199  C126 92 4A            DEFB %10010010,%01001010
1200  C128 92 4A            DEFB %10010010,%01001010
1201  C12A FF FE            DEFB %11111111,%11111110
1202  C12C C9 26            DEFB %11001001,%00100110
1203  C12E C9 26            DEFB %11001001,%00100110
1204  C130 FF FE            DEFB %11111111,%11111110
1205  C132 92 4A            DEFB %10010010,%01001010
1206  C134 92 4A            DEFB %10010010,%01001010
1207  C136 FF FE            DEFB %11111111,%11111110
1208  C138 C9 26            DEFB %11001001,%00100110
1209  C13A C9 26            DEFB %11001001,%00100110
1210  C13C FF FE            DEFB %11111111,%11111110
1211  C13E 92 4A            DEFB %10010010,%01001010
1212  C140 92 4A            DEFB %10010010,%01001010
1213  C142 FF FE            DEFB %11111111,%11111110
1214  C144
1215  C144              ; 3: Q-Block
1216  C144 FF FC            DEFB %11111111,%11111100
1217  C146 C3 04            DEFB %11000011,%00000100
1218  C148 A2 8C            DEFB %10100010,%10001100
1219  C14A 92 4C            DEFB %10010010,%01001100
1220  C14C FF FC            DEFB %11111111,%11111100
1221  C14E 99 34            DEFB %10011001,%00110100
1222  C150 A9 54            DEFB %10101001,%01010100
1223  C152 C9 94            DEFB %11001001,%10010100
1224  C154 FF FC            DEFB %11111111,%11111100
1225  C156 92 4C            DEFB %10010010,%01001100
1226  C158 A2 8C            DEFB %10100010,%10001100
1227  C15A 92 4C            DEFB %10010010,%01001100
1228  C15C FF FC            DEFB %11111111,%11111100
1229  C15E 80 04            DEFB %10000000,%00000100
1230  C160 BF F4            DEFB %10111111,%11110100
1231  C162 FF FC            DEFB %11111111,%11111100
1232  C164
1233  C164              ; 4: Pipe Top
1234  C164 1F F0            DEFB %00011111,%11110000
1235  C166 3F F8            DEFB %00111111,%11111000
1236  C168 7F FC            DEFB %01111111,%11111100
1237  C16A 7F FC            DEFB %01111111,%11111100
1238  C16C 3F F8            DEFB %00111111,%11111000
1239  C16E 1F F0            DEFB %00011111,%11110000
1240  C170 0F E0            DEFB %00001111,%11100000
1241  C172 0F E0            DEFB %00001111,%11100000
1242  C174 0F E0            DEFB %00001111,%11100000
1243  C176 0F E0            DEFB %00001111,%11100000
1244  C178 0F E0            DEFB %00001111,%11100000
1245  C17A 0F E0            DEFB %00001111,%11100000
1246  C17C 0F E0            DEFB %00001111,%11100000
1247  C17E 0F E0            DEFB %00001111,%11100000
1248  C180 0F E0            DEFB %00001111,%11100000
1249  C182 0F E0            DEFB %00001111,%11100000
1250  C184
1251  C184              ; 5: Pipe Body
1252  C184 0F E0            DEFB %00001111,%11100000
1253  C186 0F E0            DEFB %00001111,%11100000
1254  C188 0F E0            DEFB %00001111,%11100000
1255  C18A 0F E0            DEFB %00001111,%11100000
1256  C18C 0F E0            DEFB %00001111,%11100000
1257  C18E 0F E0            DEFB %00001111,%11100000
1258  C190 0F E0            DEFB %00001111,%11100000
1259  C192 0F E0            DEFB %00001111,%11100000
1260  C194 0F E0            DEFB %00001111,%11100000
1261  C196 0F E0            DEFB %00001111,%11100000
1262  C198 0F E0            DEFB %00001111,%11100000
1263  C19A 0F E0            DEFB %00001111,%11100000
1264  C19C 0F E0            DEFB %00001111,%11100000
1265  C19E 0F E0            DEFB %00001111,%11100000
1266  C1A0 0F E0            DEFB %00001111,%11100000
1267  C1A2 0F E0            DEFB %00001111,%11100000
1268  C1A4
1269  C1A4              ; 6: Flag
1270  C1A4 02 00            DEFB %00000010,%00000000
1271  C1A6 03 00            DEFB %00000011,%00000000
1272  C1A8 03 80            DEFB %00000011,%10000000
1273  C1AA 03 C0            DEFB %00000011,%11000000
1274  C1AC 03 80            DEFB %00000011,%10000000
1275  C1AE 03 00            DEFB %00000011,%00000000
1276  C1B0 02 00            DEFB %00000010,%00000000
1277  C1B2 02 00            DEFB %00000010,%00000000
1278  C1B4 02 00            DEFB %00000010,%00000000
1279  C1B6 02 00            DEFB %00000010,%00000000
1280  C1B8 02 00            DEFB %00000010,%00000000
1281  C1BA 02 00            DEFB %00000010,%00000000
1282  C1BC 02 00            DEFB %00000010,%00000000
1283  C1BE 03 00            DEFB %00000011,%00000000
1284  C1C0 03 00            DEFB %00000011,%00000000
1285  C1C2 0F 80            DEFB %00001111,%10000000
1286  C1C4
1287  C1C4              ; 7: Solid invisible
1288  C1C4 00 00 00...      DS 32, 0
1289  C1E4
1290  C1E4              ; 8: Used Q-block
1291  C1E4 FF FC            DEFB %11111111,%11111100
1292  C1E6 C0 04            DEFB %11000000,%00000100
1293  C1E8 80 0C            DEFB %10000000,%00001100
1294  C1EA 80 0C            DEFB %10000000,%00001100
1295  C1EC FF FC            DEFB %11111111,%11111100
1296  C1EE 80 04            DEFB %10000000,%00000100
1297  C1F0 80 04            DEFB %10000000,%00000100
1298  C1F2 80 04            DEFB %10000000,%00000100
1299  C1F4 FF FC            DEFB %11111111,%11111100
1300  C1F6 80 04            DEFB %10000000,%00000100
1301  C1F8 80 04            DEFB %10000000,%00000100
1302  C1FA 80 04            DEFB %10000000,%00000100
1303  C1FC FF FC            DEFB %11111111,%11111100
1304  C1FE 80 04            DEFB %10000000,%00000100
1305  C200 BF F4            DEFB %10111111,%11110100
1306  C202 FF FC            DEFB %11111111,%11111100
1307  C204
1308  C204              ; 9: Castle
1309  C204 55 54            DEFB %01010101,%01010100
1310  C206 55 54            DEFB %01010101,%01010100
1311  C208 7F FC            DEFB %01111111,%11111100
1312  C20A 7F FC            DEFB %01111111,%11111100
1313  C20C 66 64            DEFB %01100110,%01100100
1314  C20E 66 64            DEFB %01100110,%01100100
1315  C210 7F FC            DEFB %01111111,%11111100
1316  C212 7F FC            DEFB %01111111,%11111100
1317  C214 66 64            DEFB %01100110,%01100100
1318  C216 66 64            DEFB %01100110,%01100100
1319  C218 7F FC            DEFB %01111111,%11111100
1320  C21A 7F FC            DEFB %01111111,%11111100
1321  C21C 66 64            DEFB %01100110,%01100100
1322  C21E 66 64            DEFB %01100110,%01100100
1323  C220 7F FC            DEFB %01111111,%11111100
1324  C222 7F FC            DEFB %01111111,%11111100
1325  C224
1326  C224              ; ============================================================
1327  C224              ; DRAW TILE — A=tile_id, B=screen_pixel_x, C=screen_pixel_y
1328  C224              ; Both B and C must be multiples of 8
1329  C224              ; Uses IY to preserve pixel coords across attr write
1330  C224              ; ============================================================
1331  C224              DrawTile:
1332  C224 E5               push hl
1333  C225 D5               push de
1334  C226 C5               push bc
1335  C227 DD E5            push ix
1336  C229 FD E5            push iy
1337  C22B F5               push af
1338  C22C
1339  C22C                  ; Tile data into IX
1340  C22C 6F               ld l, a
1341  C22D 26 00            ld h, 0
1342  C22F 29               add hl, hl
1343  C230 29               add hl, hl
1344  C231 29               add hl, hl
1345  C232 29               add hl, hl
1346  C233 29               add hl, hl
1347  C234 11 E4 C0         ld de, TILE_DATA
1348  C237 19               add hl, de
1349  C238 E5               push hl
1350  C239 DD E1            pop ix
1351  C23B
1352  C23B                  ; Save pixel coords in IY
1353  C23B FD 60            ld iyh, b
1354  C23D FD 69            ld iyl, c
1355  C23F
1356  C23F                  ; Screen address from B (pixel x), C (pixel y) into DE
1357  C23F 79               ld a, c
1358  C240 E6 C0            and $C0
1359  C242 0F               rrca
1360  C243 0F               rrca
1361  C244 0F               rrca
1362  C245 57               ld d, a
1363  C246 79               ld a, c
1364  C247 E6 07            and $07
1365  C249 0F               rrca
1366  C24A 0F               rrca
1367  C24B 0F               rrca
1368  C24C B2               or d
1369  C24D F6 40            or $40
1370  C24F 57               ld d, a
1371  C250 79               ld a, c
1372  C251 E6 38            and $38
1373  C253 87               add a, a
1374  C254 87               add a, a
1375  C255 5F               ld e, a
1376  C256 78               ld a, b
1377  C257 0F               rrca
1378  C258 0F               rrca
1379  C259 0F               rrca
1380  C25A E6 1F            and $1F
1381  C25C B3               or e
1382  C25D 5F               ld e, a
1383  C25E
1384  C25E                  ; Draw 16 rows × 2 bytes
1385  C25E 06 10            ld b, 16
1386  C260              .dt_row:
1387  C260 DD 7E 00         ld a, (ix+0)
1388  C263 12               ld (de), a
1389  C264 13               inc de
1390  C265 DD 7E 01         ld a, (ix+1)
1391  C268 12               ld (de), a
1392  C269 1B               dec de
1393  C26A C5               push bc
1394  C26B 01 02 00         ld bc, 2
1395  C26E DD 09            add ix, bc
1396  C270 C1               pop bc
1397  C271 14               inc d
1398  C272 7A               ld a, d
1399  C273 E6 07            and $07
1400  C275 20 0A            jr nz, .dt_cont
1401  C277 7B               ld a, e
1402  C278 C6 20            add a, $20
1403  C27A 5F               ld e, a
1404  C27B                  ; Fix 27: was 'jr nc' — logic was inverted.
1405  C27B                  ; No carry: char row advance stays within same third → D overshot by 8 → sub $08
1406  C27B                  ; Carry: E wrapped past char-row 7, moving to next third → D correct, skip
1407  C27B 38 04            jr c, .dt_cont
1408  C27D 7A               ld a, d
1409  C27E D6 08            sub $08
1410  C280 57               ld d, a
1411  C281              .dt_cont:
1412  C281 10 DD            djnz .dt_row
1413  C283
1414  C283                  ; Write 2×2 attribute cells
1415  C283 F1               pop af
1416  C284 F5               push af
1417  C285 CD DB C0         call GetTileAttr
1418  C288 57               ld d, a             ; attr in D
1419  C289
1420  C289 FD 7D            ld a, iyl           ; pixel_y
1421  C28B 0F               rrca
1422  C28C 0F               rrca
1423  C28D 0F               rrca
1424  C28E E6 1F            and $1F
1425  C290 6F               ld l, a
1426  C291 26 00            ld h, 0
1427  C293 29               add hl, hl
1428  C294 29               add hl, hl
1429  C295 29               add hl, hl
1430  C296 29               add hl, hl
1431  C297 29               add hl, hl
1432  C298 01 00 58         ld bc, ATTR_BASE
1433  C29B 09               add hl, bc
1434  C29C FD 7C            ld a, iyh           ; pixel_x
1435  C29E 0F               rrca
1436  C29F 0F               rrca
1437  C2A0 0F               rrca
1438  C2A1 E6 1F            and $1F
1439  C2A3 4F               ld c, a
1440  C2A4 06 00            ld b, 0
1441  C2A6 09               add hl, bc
1442  C2A7
1443  C2A7 72               ld (hl), d
1444  C2A8 23               inc hl
1445  C2A9 72               ld (hl), d
1446  C2AA 01 1F 00         ld bc, 31
1447  C2AD 09               add hl, bc
1448  C2AE 72               ld (hl), d
1449  C2AF 23               inc hl
1450  C2B0 72               ld (hl), d
1451  C2B1
1452  C2B1 F1               pop af
1453  C2B2 FD E1            pop iy
1454  C2B4 DD E1            pop ix
1455  C2B6 C1               pop bc
1456  C2B7 D1               pop de
1457  C2B8 E1               pop hl
1458  C2B9 C9               ret
1459  C2BA
1460  C2BA              ; ============================================================
1461  C2BA              ; RENDER LEVEL — draws 16×11 tile viewport
1462  C2BA              ; Level bank must already be paged in
1463  C2BA              ; ============================================================
1464  C2BA              RenderLevel:
1465  C2BA E5               push hl
1466  C2BB D5               push de
1467  C2BC C5               push bc
1468  C2BD DD E5            push ix
1469  C2BF FD E5            push iy
1470  C2C1
1471  C2C1                  ; cam_tile_x = cam_x / 16
1472  C2C1 2A 35 80         ld hl, (cam_x)
1473  C2C4 06 04            ld b, 4
1474  C2C6              .rl_camdiv:
1475  C2C6 CB 3C            srl h
1476  C2C8 CB 1D            rr l
1477  C2CA 10 FA            djnz .rl_camdiv
1478  C2CC 7D               ld a, l
1479  C2CD 32 B2 80         ld (cam_tile_x), a
1480  C2D0
1481  C2D0 FD 26 00         ld iyh, 0               ; tile row 0..MAP_H-1
1482  C2D3
1483  C2D3              .rl_rowloop:
1484  C2D3 FD 7C            ld a, iyh
1485  C2D5 FE 0B            cp MAP_H
1486  C2D7 D2 20 C3         jp nc, .rl_done
1487  C2DA
1488  C2DA FD 2E 00         ld iyl, 0               ; tile col 0..SCREEN_TW-1
1489  C2DD
1490  C2DD              .rl_colloop:
1491  C2DD FD 7D            ld a, iyl
1492  C2DF FE 10            cp SCREEN_TW
1493  C2E1 D2 1B C3         jp nc, .rl_nextrow
1494  C2E4
1495  C2E4                  ; Map address = $C000 + row*64 + (cam_tile_x + col) & 63
1496  C2E4 FD 7C            ld a, iyh           ; tile row (can't ld l,iyh directly, go via A)
1497  C2E6 6F               ld l, a
1498  C2E7 26 00            ld h, 0
1499  C2E9 29               add hl, hl
1500  C2EA 29               add hl, hl
1501  C2EB 29               add hl, hl
1502  C2EC 29               add hl, hl
1503  C2ED 29               add hl, hl
1504  C2EE 29               add hl, hl
1505  C2EF 11 B5 80         ld de, level_map_cache
1506  C2F2 19               add hl, de
1507  C2F3 3A B2 80         ld a, (cam_tile_x)
1508  C2F6 FD 85            add a, iyl
1509  C2F8 E6 3F            and 63
1510  C2FA 4F               ld c, a
1511  C2FB 06 00            ld b, 0
1512  C2FD 09               add hl, bc
1513  C2FE 7E               ld a, (hl)              ; tile ID
1514  C2FF B7               or a                    ; CHANGED: Fix 47 — test for AIR (tile 0); sets Z, preserves A
1515  C300 CA 16 C3         jp z, .rl_air_skip      ; CHANGED: Fix 47 — AIR = all-zero pixels+SKY attr already set by ClearScreen
1516  C303
1517  C303                  ; Screen pixel X = col * 16
1518  C303 F5               push af
1519  C304 FD 7D            ld a, iyl
1520  C306 87               add a, a
1521  C307 87               add a, a
1522  C308 87               add a, a
1523  C309 87               add a, a
1524  C30A 47               ld b, a
1525  C30B
1526  C30B                  ; Screen pixel Y = row * 16
1527  C30B FD 7C            ld a, iyh
1528  C30D 87               add a, a
1529  C30E 87               add a, a
1530  C30F 87               add a, a
1531  C310 87               add a, a
1532  C311 4F               ld c, a
1533  C312
1534  C312 F1               pop af
1535  C313 CD 24 C2         call DrawTile
1536  C316
1537  C316              .rl_air_skip:               ; CHANGED: Fix 47 — AIR skip target; non-AIR falls through here too
1538  C316 FD 2C            inc iyl
1539  C318 C3 DD C2         jp .rl_colloop
1540  C31B
1541  C31B              .rl_nextrow:
1542  C31B FD 24            inc iyh
1543  C31D C3 D3 C2         jp .rl_rowloop
1544  C320
1545  C320              .rl_done:
1546  C320 FD E1            pop iy
1547  C322 DD E1            pop ix
1548  C324 C1               pop bc
1549  C325 D1               pop de
1550  C326 E1               pop hl
1551  C327 C9               ret
1552  C328
1553  C328              ; ============================================================
1554  C328              ; SPRITE DATA — 13 sprites × 32 bytes (16 rows × 2 bytes)
1555  C328              ; ============================================================
1556  C328              SPRITE_DATA:
1557  C328
1558  C328              SPR_MARCO_STAND:
1559  C328 00 3C            DEFB %00000000,%00111100
1560  C32A 00 7F            DEFB %00000000,%01111111
1561  C32C 00 6B            DEFB %00000000,%01101011
1562  C32E 00 7F            DEFB %00000000,%01111111
1563  C330 00 3C            DEFB %00000000,%00111100
1564  C332 00 1C            DEFB %00000000,%00011100
1565  C334 00 7E            DEFB %00000000,%01111110
1566  C336 00 FF            DEFB %00000000,%11111111
1567  C338 00 9A            DEFB %00000000,%10011010
1568  C33A 00 BE            DEFB %00000000,%10111110
1569  C33C 00 7C            DEFB %00000000,%01111100
1570  C33E 00 38            DEFB %00000000,%00111000
1571  C340 00 38            DEFB %00000000,%00111000
1572  C342 00 7C            DEFB %00000000,%01111100
1573  C344 00 C6            DEFB %00000000,%11000110
1574  C346 00 C6            DEFB %00000000,%11000110
1575  C348
1576  C348              SPR_MARCO_WALK1:
1577  C348 00 3C            DEFB %00000000,%00111100
1578  C34A 00 7F            DEFB %00000000,%01111111
1579  C34C 00 6B            DEFB %00000000,%01101011
1580  C34E 00 7F            DEFB %00000000,%01111111
1581  C350 00 3C            DEFB %00000000,%00111100
1582  C352 00 3C            DEFB %00000000,%00111100
1583  C354 00 7F            DEFB %00000000,%01111111
1584  C356 00 FF            DEFB %00000000,%11111111
1585  C358 00 BE            DEFB %00000000,%10111110
1586  C35A 00 BC            DEFB %00000000,%10111100
1587  C35C 00 3C            DEFB %00000000,%00111100
1588  C35E 00 1C            DEFB %00000000,%00011100
1589  C360 00 68            DEFB %00000000,%01101000
1590  C362 00 FC            DEFB %00000000,%11111100
1591  C364 00 C4            DEFB %00000000,%11000100
1592  C366 00 0C            DEFB %00000000,%00001100
1593  C368
1594  C368              SPR_MARCO_WALK2:
1595  C368 00 3C            DEFB %00000000,%00111100
1596  C36A 00 7F            DEFB %00000000,%01111111
1597  C36C 00 6B            DEFB %00000000,%01101011
1598  C36E 00 7F            DEFB %00000000,%01111111
1599  C370 00 3C            DEFB %00000000,%00111100
1600  C372 00 74            DEFB %00000000,%01110100
1601  C374 00 FC            DEFB %00000000,%11111100
1602  C376 01 FC            DEFB %00000001,%11111100
1603  C378 01 7C            DEFB %00000001,%01111100
1604  C37A 00 7E            DEFB %00000000,%01111110
1605  C37C 00 3E            DEFB %00000000,%00111110
1606  C37E 00 70            DEFB %00000000,%01110000
1607  C380 01 20            DEFB %00000001,%00100000
1608  C382 01 C0            DEFB %00000001,%11000000
1609  C384 01 80            DEFB %00000001,%10000000
1610  C386 01 00            DEFB %00000001,%00000000
1611  C388
1612  C388              SPR_MARCO_JUMP:
1613  C388 00 3C            DEFB %00000000,%00111100
1614  C38A 00 7F            DEFB %00000000,%01111111
1615  C38C 00 6B            DEFB %00000000,%01101011
1616  C38E 00 7F            DEFB %00000000,%01111111
1617  C390 00 3C            DEFB %00000000,%00111100
1618  C392 00 37            DEFB %00000000,%00110111
1619  C394 00 7F            DEFB %00000000,%01111111
1620  C396 00 DF            DEFB %00000000,%11011111
1621  C398 00 BC            DEFB %00000000,%10111100
1622  C39A 00 BF            DEFB %00000000,%10111111
1623  C39C 00 7F            DEFB %00000000,%01111111
1624  C39E 00 1E            DEFB %00000000,%00011110
1625  C3A0 00 18            DEFB %00000000,%00011000
1626  C3A2 00 18            DEFB %00000000,%00011000
1627  C3A4 00 18            DEFB %00000000,%00011000
1628  C3A6 00 00            DEFB %00000000,%00000000
1629  C3A8
1630  C3A8              SPR_WALKER1:
1631  C3A8 00 3F            DEFB %00000000,%00111111
1632  C3AA 00 7F            DEFB %00000000,%01111111
1633  C3AC 00 D2            DEFB %00000000,%11010010
1634  C3AE 00 FF            DEFB %00000000,%11111111
1635  C3B0 01 FF            DEFB %00000001,%11111111
1636  C3B2 01 F3            DEFB %00000001,%11110011
1637  C3B4 01 EE            DEFB %00000001,%11101110
1638  C3B6 01 7F            DEFB %00000001,%01111111
1639  C3B8 00 3F            DEFB %00000000,%00111111
1640  C3BA 01 7F            DEFB %00000001,%01111111
1641  C3BC 01 FF            DEFB %00000001,%11111111
1642  C3BE 01 3E            DEFB %00000001,%00111110
1643  C3C0 01 00            DEFB %00000001,%00000000
1644  C3C2 01 C3            DEFB %00000001,%11000011
1645  C3C4 01 C3            DEFB %00000001,%11000011
1646  C3C6 00 81            DEFB %00000000,%10000001
1647  C3C8
1648  C3C8              SPR_WALKER2:
1649  C3C8 00 3F            DEFB %00000000,%00111111
1650  C3CA 00 7F            DEFB %00000000,%01111111
1651  C3CC 00 D2            DEFB %00000000,%11010010
1652  C3CE 00 FF            DEFB %00000000,%11111111
1653  C3D0 01 FF            DEFB %00000001,%11111111
1654  C3D2 01 F3            DEFB %00000001,%11110011
1655  C3D4 01 EE            DEFB %00000001,%11101110
1656  C3D6 01 7F            DEFB %00000001,%01111111
1657  C3D8 00 3F            DEFB %00000000,%00111111
1658  C3DA 01 7F            DEFB %00000001,%01111111
1659  C3DC 01 FF            DEFB %00000001,%11111111
1660  C3DE 01 3E            DEFB %00000001,%00111110
1661  C3E0 01 00            DEFB %00000001,%00000000
1662  C3E2 01 87            DEFB %00000001,%10000111
1663  C3E4 01 87            DEFB %00000001,%10000111
1664  C3E6 01 02            DEFB %00000001,%00000010
1665  C3E8
1666  C3E8              SPR_WALKER_FLAT:
1667  C3E8 00 00            DEFB %00000000,%00000000
1668  C3EA 00 00            DEFB %00000000,%00000000
1669  C3EC 00 00            DEFB %00000000,%00000000
1670  C3EE 00 00            DEFB %00000000,%00000000
1671  C3F0 00 00            DEFB %00000000,%00000000
1672  C3F2 00 00            DEFB %00000000,%00000000
1673  C3F4 00 00            DEFB %00000000,%00000000
1674  C3F6 00 00            DEFB %00000000,%00000000
1675  C3F8 00 00            DEFB %00000000,%00000000
1676  C3FA 00 00            DEFB %00000000,%00000000
1677  C3FC 01 99            DEFB %00000001,%10011001
1678  C3FE 03 FF            DEFB %00000011,%11111111
1679  C400 03 FF            DEFB %00000011,%11111111
1680  C402 01 FF            DEFB %00000001,%11111111
1681  C404 00 FE            DEFB %00000000,%11111110
1682  C406 00 3C            DEFB %00000000,%00111100
1683  C408
1684  C408              SPR_SHELLER1:
1685  C408 00 7E            DEFB %00000000,%01111110
1686  C40A 00 FF            DEFB %00000000,%11111111
1687  C40C 01 99            DEFB %00000001,%10011001
1688  C40E 01 FF            DEFB %00000001,%11111111
1689  C410 01 66            DEFB %00000001,%01100110
1690  C412 01 FF            DEFB %00000001,%11111111
1691  C414 01 66            DEFB %00000001,%01100110
1692  C416 00 FE            DEFB %00000000,%11111110
1693  C418 00 7C            DEFB %00000000,%01111100
1694  C41A 00 38            DEFB %00000000,%00111000
1695  C41C 00 7C            DEFB %00000000,%01111100
1696  C41E 00 FE            DEFB %00000000,%11111110
1697  C420 01 81            DEFB %00000001,%10000001
1698  C422 01 81            DEFB %00000001,%10000001
1699  C424 00 C3            DEFB %00000000,%11000011
1700  C426 00 42            DEFB %00000000,%01000010
1701  C428
1702  C428              SPR_COIN:
1703  C428 00 06            DEFB %00000000,%00000110
1704  C42A 00 0F            DEFB %00000000,%00001111
1705  C42C 00 1F            DEFB %00000000,%00011111
1706  C42E 00 3F            DEFB %00000000,%00111111
1707  C430 00 3F            DEFB %00000000,%00111111
1708  C432 00 3F            DEFB %00000000,%00111111
1709  C434 00 2B            DEFB %00000000,%00101011
1710  C436 00 2B            DEFB %00000000,%00101011
1711  C438 00 3F            DEFB %00000000,%00111111
1712  C43A 00 3F            DEFB %00000000,%00111111
1713  C43C 00 3F            DEFB %00000000,%00111111
1714  C43E 00 1F            DEFB %00000000,%00011111
1715  C440 00 0F            DEFB %00000000,%00001111
1716  C442 00 06            DEFB %00000000,%00000110
1717  C444 00 00            DEFB %00000000,%00000000
1718  C446 00 00            DEFB %00000000,%00000000
1719  C448
1720  C448              SPR_PWRUP:
1721  C448 00 3C            DEFB %00000000,%00111100
1722  C44A 00 7E            DEFB %00000000,%01111110
1723  C44C 00 DB            DEFB %00000000,%11011011
1724  C44E 01 B6            DEFB %00000001,%10110110
1725  C450 01 FE            DEFB %00000001,%11111110
1726  C452 01 FE            DEFB %00000001,%11111110
1727  C454 01 FE            DEFB %00000001,%11111110
1728  C456 00 FC            DEFB %00000000,%11111100
1729  C458 00 7E            DEFB %00000000,%01111110
1730  C45A 00 7E            DEFB %00000000,%01111110
1731  C45C 00 66            DEFB %00000000,%01100110
1732  C45E 00 66            DEFB %00000000,%01100110
1733  C460 00 7E            DEFB %00000000,%01111110
1734  C462 00 7E            DEFB %00000000,%01111110
1735  C464 00 3C            DEFB %00000000,%00111100
1736  C466 00 00            DEFB %00000000,%00000000
1737  C468
1738  C468              SPR_BOSS1:
1739  C468 01 FE            DEFB %00000001,%11111110
1740  C46A 03 FF            DEFB %00000011,%11111111
1741  C46C 07 6F            DEFB %00000111,%01101111
1742  C46E 0F FF            DEFB %00001111,%11111111
1743  C470 0F FF            DEFB %00001111,%11111111
1744  C472 0F 6F            DEFB %00001111,%01101111
1745  C474 0F FF            DEFB %00001111,%11111111
1746  C476 07 FE            DEFB %00000111,%11111110
1747  C478 07 FE            DEFB %00000111,%11111110
1748  C47A 0F FF            DEFB %00001111,%11111111
1749  C47C 1F FF            DEFB %00011111,%11111111
1750  C47E 19 99            DEFB %00011001,%10011001
1751  C480 18 19            DEFB %00011000,%00011001
1752  C482 1F F9            DEFB %00011111,%11111001
1753  C484 0E 70            DEFB %00001110,%01110000
1754  C486 0E 70            DEFB %00001110,%01110000
1755  C488
1756  C488              SPR_BOSS2:
1757  C488 01 FE            DEFB %00000001,%11111110
1758  C48A 03 FF            DEFB %00000011,%11111111
1759  C48C 07 DF            DEFB %00000111,%11011111
1760  C48E 0F FF            DEFB %00001111,%11111111
1761  C490 0E F7            DEFB %00001110,%11110111
1762  C492 0F FF            DEFB %00001111,%11111111
1763  C494 0F FF            DEFB %00001111,%11111111
1764  C496 07 FE            DEFB %00000111,%11111110
1765  C498 03 FC            DEFB %00000011,%11111100
1766  C49A 07 FE            DEFB %00000111,%11111110
1767  C49C 0F FF            DEFB %00001111,%11111111
1768  C49E 19 99            DEFB %00011001,%10011001
1769  C4A0 18 19            DEFB %00011000,%00011001
1770  C4A2 1F F9            DEFB %00011111,%11111001
1771  C4A4 0E 70            DEFB %00001110,%01110000
1772  C4A6 0E 70            DEFB %00001110,%01110000
1773  C4A8
1774  C4A8              ; ============================================================
1775  C4A8              ; DRAW SPRITE — IX=data, B=screen_x, C=screen_y
1776  C4A8              ; Fix 29: masked draw. For each byte: (screen AND ~pixel) OR pixel.
1777  C4A8              ; Sprite 0-pixels = transparent (background shows through).
1778  C4A8              ; Sprite 1-pixels = always drawn (foreground).
1779  C4A8              ; No extra mask data needed — mask derived from pixels on the fly.
1780  C4A8              ; ============================================================
1781  C4A8              DrawSprite:
1782  C4A8 E5               push hl
1783  C4A9 D5               push de
1784  C4AA C5               push bc
1785  C4AB DD E5            push ix                 ; CHANGED: Fix 65 — removed push/pop iy and ds_save coord writes
1786  C4AD
1787  C4AD                  ; Shift = B & 7
1788  C4AD 78               ld a, b
1789  C4AE E6 07            and $07
1790  C4B0 5F               ld e, a             ; shift amount in E
1791  C4B1
1792  C4B1                  ; Screen address into HL
1793  C4B1 78               ld a, b
1794  C4B2 0F               rrca
1795  C4B3 0F               rrca
1796  C4B4 0F               rrca
1797  C4B5 E6 1F            and $1F
1798  C4B7 57               ld d, a             ; char column
1799  C4B8
1800  C4B8 79               ld a, c
1801  C4B9 E6 C0            and $C0
1802  C4BB 0F               rrca
1803  C4BC 0F               rrca
1804  C4BD 0F               rrca
1805  C4BE 67               ld h, a
1806  C4BF 79               ld a, c
1807  C4C0 E6 07            and $07
1808  C4C2 0F               rrca
1809  C4C3 0F               rrca
1810  C4C4 0F               rrca
1811  C4C5 B4               or h
1812  C4C6 F6 40            or $40
1813  C4C8 67               ld h, a
1814  C4C9 79               ld a, c
1815  C4CA E6 38            and $38
1816  C4CC 87               add a, a
1817  C4CD 87               add a, a
1818  C4CE 6F               ld l, a
1819  C4CF 7A               ld a, d
1820  C4D0 E6 1F            and $1F
1821  C4D2 B5               or l
1822  C4D3 6F               ld l, a
1823  C4D4
1824  C4D4 06 10            ld b, 16
1825  C4D6              .ds_row:
1826  C4D6 C5               push bc
1827  C4D7 E5               push hl
1828  C4D8
1829  C4D8 DD 46 00         ld b, (ix+0)
1830  C4DB DD 4E 01         ld c, (ix+1)
1831  C4DE C5               push bc
1832  C4DF 01 02 00         ld bc, 2
1833  C4E2 DD 09            add ix, bc
1834  C4E4 C1               pop bc
1835  C4E5
1836  C4E5 7B               ld a, e
1837  C4E6 B7               or a
1838  C4E7 28 1E            jr z, .ds_no_shift
1839  C4E9
1840  C4E9 16 00            ld d, 0
1841  C4EB              .ds_shift:
1842  C4EB CB 38            srl b
1843  C4ED CB 19            rr c
1844  C4EF CB 1A            rr d
1845  C4F1 3D               dec a
1846  C4F2 20 F7            jr nz, .ds_shift
1847  C4F4
1848  C4F4                  ; Byte 0 (left): (screen AND ~B) OR B
1849  C4F4 78               ld a, b
1850  C4F5 2F               cpl
1851  C4F6 A6               and (hl)
1852  C4F7 B0               or b
1853  C4F8 77               ld (hl), a
1854  C4F9 23               inc hl
1855  C4FA                  ; Byte 1 (mid): (screen AND ~C) OR C
1856  C4FA 79               ld a, c
1857  C4FB 2F               cpl
1858  C4FC A6               and (hl)
1859  C4FD B1               or c
1860  C4FE 77               ld (hl), a
1861  C4FF 23               inc hl
1862  C500                  ; Byte 2 (overflow): (screen AND ~D) OR D
1863  C500 7A               ld a, d
1864  C501 2F               cpl
1865  C502 A6               and (hl)
1866  C503 B2               or d
1867  C504 77               ld (hl), a
1868  C505 18 0B            jr .ds_next
1869  C507
1870  C507              .ds_no_shift:
1871  C507                  ; Byte 0: (screen AND ~B) OR B
1872  C507 78               ld a, b
1873  C508 2F               cpl
1874  C509 A6               and (hl)
1875  C50A B0               or b
1876  C50B 77               ld (hl), a
1877  C50C 23               inc hl
1878  C50D                  ; Byte 1: (screen AND ~C) OR C
1879  C50D 79               ld a, c
1880  C50E 2F               cpl
1881  C50F A6               and (hl)
1882  C510 B1               or c
1883  C511 77               ld (hl), a
1884  C512
1885  C512              .ds_next:
1886  C512 E1               pop hl
1887  C513 24               inc h
1888  C514 7C               ld a, h
1889  C515 E6 07            and $07
1890  C517 20 0A            jr nz, .ds_rowok
1891  C519 7D               ld a, l
1892  C51A C6 20            add a, $20
1893  C51C 6F               ld l, a
1894  C51D                  ; Fix 27: was 'jr nc' — same inverted logic as DrawTile (see Fix 27 there).
1895  C51D 38 04            jr c, .ds_rowok
1896  C51F 7C               ld a, h
1897  C520 D6 08            sub $08
1898  C522 67               ld h, a
1899  C523              .ds_rowok:
1900  C523 C1               pop bc
1901  C524 10 B0            djnz .ds_row
1902  C526
1903  C526 DD E1            pop ix                  ; CHANGED: Fix 65 — removed attr write (Fix 56/63): redundant+crashing
1904  C528 C1               pop bc                  ; ClearScreen sets ATTR_SKY for all cells at level start;
1905  C529 D1               pop de                  ; RenderLevel restores solid tile attrs every frame.
1906  C52A                                          ; Fix 63's 3-col write overflowed into adjacent rows near right edge.
1907  C52A E1               pop hl
1908  C52B C9               ret
1909  C52C
1910  C52C              ; Erase 16×16 sprite area (zero 3 bytes × 16 rows)
1911  C52C              EraseSprite:
1912  C52C E5               push hl
1913  C52D C5               push bc
1914  C52E
1915  C52E 78               ld a, b
1916  C52F 0F               rrca
1917  C530 0F               rrca
1918  C531 0F               rrca
1919  C532 E6 1F            and $1F
1920  C534 57               ld d, a
1921  C535
1922  C535 79               ld a, c
1923  C536 E6 C0            and $C0
1924  C538 0F               rrca
1925  C539 0F               rrca
1926  C53A 0F               rrca
1927  C53B 67               ld h, a
1928  C53C 79               ld a, c
1929  C53D E6 07            and $07
1930  C53F 0F               rrca
1931  C540 0F               rrca
1932  C541 0F               rrca
1933  C542 B4               or h
1934  C543 F6 40            or $40
1935  C545 67               ld h, a
1936  C546 79               ld a, c
1937  C547 E6 38            and $38
1938  C549 87               add a, a
1939  C54A 87               add a, a
1940  C54B 6F               ld l, a
1941  C54C 7A               ld a, d
1942  C54D B5               or l
1943  C54E 6F               ld l, a
1944  C54F
1945  C54F 06 10            ld b, 16
1946  C551              .er_row:
1947  C551 36 00            ld (hl), 0
1948  C553 23               inc hl
1949  C554 36 00            ld (hl), 0
1950  C556 23               inc hl
1951  C557 36 00            ld (hl), 0
1952  C559 2B               dec hl
1953  C55A 2B               dec hl
1954  C55B 24               inc h
1955  C55C 7C               ld a, h
1956  C55D E6 07            and $07
1957  C55F 20 0A            jr nz, .er_ok
1958  C561 7D               ld a, l
1959  C562 C6 20            add a, $20
1960  C564 6F               ld l, a
1961  C565 30 04            jr nc, .er_ok
1962  C567 7C               ld a, h
1963  C568 D6 08            sub $08
1964  C56A 67               ld h, a
1965  C56B              .er_ok:
1966  C56B 10 E4            djnz .er_row
1967  C56D
1968  C56D C1               pop bc
1969  C56E E1               pop hl
1970  C56F C9               ret
1971  C570
1972  C570              ; ============================================================
1973  C570              ; PLAYER UPDATE
1974  C570              ; ============================================================
1975  C570              UpdatePlayer:
1976  C570 E5               push hl
1977  C571 C5               push bc
1978  C572 F5               push af
1979  C573
1980  C573                  ; Decrement invincibility timer if active
1981  C573 3A 22 80         ld a, (plr_inv_timer)
1982  C576 B7               or a
1983  C577 28 04            jr z, .up_inv_done
1984  C579 3D               dec a
1985  C57A 32 22 80         ld (plr_inv_timer), a
1986  C57D              .up_inv_done:
1987  C57D
1988  C57D 3A 95 80         ld a, (joy_held)
1989  C580
1990  C580 CB 4F            bit 1, a                ; left
1991  C582 28 0E            jr z, .up_not_left
1992  C584 21 18 80         ld hl, plr_vx
1993  C587 7E               ld a, (hl)
1994  C588 FE FE            cp 256 - PLR_MAX_VX
1995  C58A 28 06            jr z, .up_not_left
1996  C58C 35               dec (hl)
1997  C58D 3E 01            ld a, 1
1998  C58F 32 1A 80         ld (plr_dir), a
1999  C592              .up_not_left:
2000  C592
2001  C592 3A 95 80         ld a, (joy_held)
2002  C595 CB 47            bit 0, a                ; right
2003  C597 28 0D            jr z, .up_not_right
2004  C599 21 18 80         ld hl, plr_vx
2005  C59C 7E               ld a, (hl)
2006  C59D FE 02            cp PLR_MAX_VX
2007  C59F 28 05            jr z, .up_not_right
2008  C5A1 34               inc (hl)
2009  C5A2 AF               xor a
2010  C5A3 32 1A 80         ld (plr_dir), a
2011  C5A6              .up_not_right:
2012  C5A6
2013  C5A6                  ; Friction when no horizontal key
2014  C5A6 3A 95 80         ld a, (joy_held)
2015  C5A9 E6 03            and $03
2016  C5AB 20 0E            jr nz, .up_no_friction
2017  C5AD 21 18 80         ld hl, plr_vx
2018  C5B0 7E               ld a, (hl)
2019  C5B1 B7               or a
2020  C5B2 28 07            jr z, .up_no_friction
2021  C5B4 FA BA C5         jp m, .up_fric_neg
2022  C5B7 35               dec (hl)
2023  C5B8 18 01            jr .up_no_friction
2024  C5BA              .up_fric_neg:
2025  C5BA 34               inc (hl)
2026  C5BB              .up_no_friction:
2027  C5BB
2028  C5BB                  ; Jump on fire (bit 4 = Kempston fire)
2029  C5BB 3A 96 80         ld a, (joy_new)
2030  C5BE CB 67            bit 4, a
2031  C5C0 28 19            jr z, .up_no_jump
2032  C5C2 3A 1D 80         ld a, (plr_on_ground)
2033  C5C5 B7               or a
2034  C5C6 28 13            jr z, .up_no_jump
2035  C5C8 3E F8            ld a, 256 - 8
2036  C5CA 32 19 80         ld (plr_vy), a
2037  C5CD AF               xor a
2038  C5CE 32 1D 80         ld (plr_on_ground), a
2039  C5D1 3E 01            ld a, 1
2040  C5D3 32 1E 80         ld (plr_jumping), a
2041  C5D6 3E 00            ld a, SFX_JUMP
2042  C5D8 CD 62 BD         call SFX_Play
2043  C5DB              .up_no_jump:
2044  C5DB
2045  C5DB                  ; Variable jump height
2046  C5DB 3A 95 80         ld a, (joy_held)
2047  C5DE CB 67            bit 4, a
2048  C5E0 28 13            jr z, .up_do_gravity
2049  C5E2 3A 1E 80         ld a, (plr_jumping)
2050  C5E5 B7               or a
2051  C5E6 28 0D            jr z, .up_do_gravity
2052  C5E8 3A 19 80         ld a, (plr_vy)
2053  C5EB FE FC            cp 252                  ; -4 as unsigned
2054  C5ED 30 02            jr nc, .up_stop_varjump
2055  C5EF 18 11            jr .up_skip_gravity
2056  C5F1              .up_stop_varjump:
2057  C5F1 AF               xor a
2058  C5F2 32 1E 80         ld (plr_jumping), a
2059  C5F5              .up_do_gravity:
2060  C5F5 21 19 80         ld hl, plr_vy
2061  C5F8 7E               ld a, (hl)
2062  C5F9 C6 01            add a, GRAVITY
2063  C5FB FE 09            cp 9
2064  C5FD 38 02            jr c, .up_grav_ok
2065  C5FF 3E 08            ld a, 8
2066  C601              .up_grav_ok:
2067  C601 77               ld (hl), a
2068  C602              .up_skip_gravity:
2069  C602
2070  C602                  ; Apply vx to plr_x
2071  C602 2A 14 80         ld hl, (plr_x)
2072  C605 3A 18 80         ld a, (plr_vx)
2073  C608 4F               ld c, a
2074  C609 06 00            ld b, 0
2075  C60B CB 79            bit 7, c
2076  C60D 28 02            jr z, .up_vx_pos
2077  C60F 06 FF            ld b, $FF
2078  C611              .up_vx_pos:
2079  C611 09               add hl, bc
2080  C612                  ; Clamp X >= 8
2081  C612 CB 7C            bit 7, h
2082  C614 28 09            jr z, .up_xpos_ok
2083  C616 21 08 00         ld hl, 8
2084  C619 AF               xor a
2085  C61A 32 18 80         ld (plr_vx), a
2086  C61D 18 10            jr .up_x_done
2087  C61F              .up_xpos_ok:
2088  C61F 7C               ld a, h
2089  C620 B7               or a
2090  C621 20 0C            jr nz, .up_x_done
2091  C623 7D               ld a, l
2092  C624 FE 08            cp 8
2093  C626 30 07            jr nc, .up_x_done
2094  C628 21 08 00         ld hl, 8
2095  C62B AF               xor a
2096  C62C 32 18 80         ld (plr_vx), a
2097  C62F              .up_x_done:
2098  C62F 22 14 80         ld (plr_x), hl
2099  C632
2100  C632                  ; Fix 34: Check horizontal tile collision after applying vx
2101  C632 CD 5E C7         call CheckWalls
2102  C635
2103  C635                  ; Apply vy to plr_y
2104  C635 2A 16 80         ld hl, (plr_y)
2105  C638 3A 19 80         ld a, (plr_vy)
2106  C63B 4F               ld c, a
2107  C63C 06 00            ld b, 0
2108  C63E CB 79            bit 7, c
2109  C640 28 02            jr z, .up_vy_pos
2110  C642 06 FF            ld b, $FF
2111  C644              .up_vy_pos:
2112  C644 09               add hl, bc
2113  C645 22 16 80         ld (plr_y), hl
2114  C648
2115  C648 CD C5 C6         call CheckGround
2116  C64B
2117  C64B 3A 19 80         ld a, (plr_vy)
2118  C64E CB 7F            bit 7, a
2119  C650 28 03            jr z, .up_no_ceiling
2120  C652 CD 10 C7         call CheckCeiling
2121  C655              .up_no_ceiling:
2122  C655
2123  C655 CD FC C7         call UpdateCamera
2124  C658
2125  C658                  ; Animation counter
2126  C658 21 1C 80         ld hl, plr_anim_cnt
2127  C65B 34               inc (hl)
2128  C65C 7E               ld a, (hl)
2129  C65D FE 08            cp 8
2130  C65F 38 0A            jr c, .up_no_anim
2131  C661 36 00            ld (hl), 0
2132  C663 21 1B 80         ld hl, plr_anim
2133  C666 34               inc (hl)
2134  C667 7E               ld a, (hl)
2135  C668 E6 03            and $03
2136  C66A 77               ld (hl), a
2137  C66B              .up_no_anim:
2138  C66B
2139  C66B                  ; Pit death (Y > 511)
2140  C66B 2A 16 80         ld hl, (plr_y)
2141  C66E 7C               ld a, h
2142  C66F FE 02            cp 2
2143  C671 38 03            jr c, .up_no_pit
2144  C673 CD 1C CD         call PlayerDie
2145  C676              .up_no_pit:
2146  C676
2147  C676 F1               pop af
2148  C677 C1               pop bc
2149  C678 E1               pop hl
2150  C679 C9               ret
2151  C67A
2152  C67A              ; ============================================================
2153  C67A              ; TILE COLLISION HELPERS
2154  C67A              ; ============================================================
2155  C67A
2156  C67A              ; GetTileAt: HL=world_pixel_x (16-bit), B=world_pixel_y → A=tile_id
2157  C67A              ; Fix 33: changed from C=pixel_x (8-bit) to HL=pixel_x (16-bit) so the full
2158  C67A              ; x coordinate is used. Tiles 16+ (x >= 256) were silently truncated before.
2159  C67A              ; Also pushes/pops BC so caller's B (pixel_y) survives — Fix31 changed
2160  C67A              ; the cache address to use BC which clobbered B, breaking cg_snap in CheckGround.
2161  C67A              GetTileAt:
2162  C67A                  ; Reads from level_map_cache in bank2 — no paging needed
2163  C67A E5               push hl
2164  C67B D5               push de
2165  C67C C5               push bc             ; preserve caller's B (pixel_y) — Fix 33
2166  C67D
2167  C67D                  ; Compute tile_x from 16-bit pixel_x in HL (0..1023):
2168  C67D                  ; tile_x = pixel_x / 16 = H*16 + L/16
2169  C67D 7D               ld a, l
2170  C67E 0F               rrca
2171  C67F 0F               rrca
2172  C680 0F               rrca
2173  C681 0F               rrca
2174  C682 E6 0F            and $0F             ; low 4 bits: L >> 4
2175  C684 5F               ld e, a
2176  C685 7C               ld a, h
2177  C686 E6 03            and $03             ; only bits[1:0] of H matter (pixel_x <= 1023)
2178  C688 07               rlca
2179  C689 07               rlca
2180  C68A 07               rlca
2181  C68B 07               rlca
2182  C68C E6 30            and $30             ; high 2 bits: H << 4
2183  C68E B3               or e
2184  C68F E6 3F            and $3F
2185  C691 5F               ld e, a             ; E = tile_x (0..63)
2186  C692
2187  C692 78               ld a, b
2188  C693 0F               rrca
2189  C694 0F               rrca
2190  C695 0F               rrca
2191  C696 0F               rrca
2192  C697 E6 0F            and $0F
2193  C699 57               ld d, a             ; tile_y (0..10)
2194  C69A
2195  C69A FE 0B            cp MAP_H
2196  C69C D2 B9 C6         jp nc, .gta_solid
2197  C69F 7B               ld a, e
2198  C6A0 FE 40            cp MAP_W
2199  C6A2 D2 B9 C6         jp nc, .gta_solid
2200  C6A5
2201  C6A5                  ; offset = tile_y * MAP_W + tile_x
2202  C6A5                  ; Fix 31: was 'ld de, level_map_cache / add hl, de / ld b,0 / ld c,e'
2203  C6A5                  ; but ld de overwrites E (tile_x), so ld c,e loaded $A3 (low byte of
2204  C6A5                  ; level_map_cache = $80A3) instead of tile_x. Every tile lookup was
2205  C6A5                  ; 161 bytes past the intended position, always past the end of the cache,
2206  C6A5                  ; reading random RAM. Ground tiles never detected → player fell through
2207  C6A5                  ; floor → screen_y ≥ 177 → DrawSprite wrote into attr/sysvar area → crash.
2208  C6A5                  ; Fix: use ld bc / add hl,bc which preserves DE (E still = tile_x).
2209  C6A5 26 00            ld h, 0
2210  C6A7 6A               ld l, d
2211  C6A8 29               add hl, hl
2212  C6A9 29               add hl, hl
2213  C6AA 29               add hl, hl
2214  C6AB 29               add hl, hl
2215  C6AC 29               add hl, hl
2216  C6AD 29               add hl, hl             ; hl = tile_y * 64  (MAP_W=64)
2217  C6AE 01 B5 80         ld bc, level_map_cache
2218  C6B1 09               add hl, bc             ; hl = level_map_cache + tile_y*64 (E still = tile_x)
2219  C6B2 06 00            ld b, 0
2220  C6B4 4B               ld c, e                ; tile_x — E intact because we used BC not DE above
2221  C6B5 09               add hl, bc
2222  C6B6 7E               ld a, (hl)
2223  C6B7 18 02            jr .gta_done
2224  C6B9
2225  C6B9              .gta_solid:
2226  C6B9 3E 01            ld a, TILE_GROUND
2227  C6BB              .gta_done:
2228  C6BB C1               pop bc
2229  C6BC D1               pop de
2230  C6BD E1               pop hl
2231  C6BE C9               ret
2232  C6BF
2233  C6BF              ; IsSolid — A=tile_id → Z=passable (AIR or FLAG), NZ=solid, A preserved
2234  C6BF              ; Fix 37: removed 'ld a,1 / or a' at end — cp TILE_FLAG already leaves Z clear
2235  C6BF              ; (NZ) for any non-FLAG solid tile, and A is preserved so CheckCeiling can
2236  C6BF              ; read the tile_id back for QBlock detection without re-calling GetTileAt.
2237  C6BF              IsSolid:
2238  C6BF B7               or a
2239  C6C0 C8               ret z               ; AIR (0) = passable, return Z
2240  C6C1 FE 06            cp TILE_FLAG
2241  C6C3 C8               ret z               ; FLAG (6) = passable, return Z
2242  C6C4 C9               ret                 ; anything else = solid, cp left NZ, A = tile_id
2243  C6C5
2244  C6C5              CheckGround:
2245  C6C5 E5               push hl
2246  C6C6 C5               push bc
2247  C6C7 D5               push de
2248  C6C8
2249  C6C8                  ; Player bottom = plr_y + PLR_H
2250  C6C8 2A 16 80         ld hl, (plr_y)
2251  C6CB 7D               ld a, l
2252  C6CC C6 0E            add a, PLR_H
2253  C6CE 47               ld b, a             ; B = pixel_y (plr_y + PLR_H)
2254  C6CF
2255  C6CF                  ; Left foot: pixel_x = plr_x + 4
2256  C6CF 2A 14 80         ld hl, (plr_x)      ; HL = plr_x (16-bit) — Fix 33
2257  C6D2 11 04 00         ld de, 4
2258  C6D5 19               add hl, de          ; HL = plr_x + 4
2259  C6D6 CD 7A C6         call GetTileAt      ; BC preserved by GetTileAt (Fix 33), B still = pixel_y
2260  C6D9 CD BF C6         call IsSolid
2261  C6DC C2 EE C6         jp nz, .cg_snap
2262  C6DF
2263  C6DF                  ; Right foot: pixel_x = plr_x + PLR_W - 4
2264  C6DF                  ; B = pixel_y still valid (GetTileAt now preserves BC)
2265  C6DF 2A 14 80         ld hl, (plr_x)
2266  C6E2 11 08 00         ld de, PLR_W - 4
2267  C6E5 19               add hl, de          ; HL = plr_x + PLR_W - 4
2268  C6E6 CD 7A C6         call GetTileAt
2269  C6E9 CD BF C6         call IsSolid
2270  C6EC 28 1A            jr z, .cg_no_ground
2271  C6EE
2272  C6EE              .cg_snap:
2273  C6EE                  ; B = pixel_y = plr_y + PLR_H (preserved by GetTileAt Fix 33)
2274  C6EE                  ; Snap plr_y to tile boundary: plr_y = (pixel_y & $F0) - PLR_H
2275  C6EE 78               ld a, b
2276  C6EF E6 F0            and $F0
2277  C6F1 D6 0E            sub PLR_H
2278  C6F3 6F               ld l, a
2279  C6F4 26 00            ld h, 0
2280  C6F6 22 16 80         ld (plr_y), hl
2281  C6F9 AF               xor a
2282  C6FA 32 19 80         ld (plr_vy), a
2283  C6FD 3E 01            ld a, 1
2284  C6FF 32 1D 80         ld (plr_on_ground), a
2285  C702 AF               xor a
2286  C703 32 1E 80         ld (plr_jumping), a
2287  C706 18 04            jr .cg_done
2288  C708
2289  C708              .cg_no_ground:
2290  C708 AF               xor a
2291  C709 32 1D 80         ld (plr_on_ground), a
2292  C70C
2293  C70C              .cg_done:
2294  C70C D1               pop de
2295  C70D C1               pop bc
2296  C70E E1               pop hl
2297  C70F C9               ret
2298  C710
2299  C710              CheckCeiling:
2300  C710 E5               push hl
2301  C711 C5               push bc
2302  C712
2303  C712 2A 16 80         ld hl, (plr_y)
2304  C715 45               ld b, l             ; B = pixel_y (plr_y low byte — always fits 8 bits)
2305  C716
2306  C716                  ; Centre-top probe: pixel_x = plr_x + 8
2307  C716 2A 14 80         ld hl, (plr_x)      ; HL = plr_x (16-bit) — Fix 33
2308  C719 11 08 00         ld de, 8
2309  C71C 19               add hl, de          ; HL = plr_x + 8
2310  C71D CD 7A C6         call GetTileAt
2311  C720 CD BF C6         call IsSolid
2312  C723 28 1A            jr z, .cc_done
2313  C725
2314  C725 FE 03            cp TILE_QBLOCK
2315  C727 CC 42 C7         call z, QBlockHit
2316  C72A
2317  C72A AF               xor a
2318  C72B 32 19 80         ld (plr_vy), a
2319  C72E 2A 16 80         ld hl, (plr_y)
2320  C731 7D               ld a, l
2321  C732 E6 F0            and $F0
2322  C734 C6 10            add a, 16
2323  C736 6F               ld l, a
2324  C737 22 16 80         ld (plr_y), hl
2325  C73A 3E 02            ld a, SFX_BUMP
2326  C73C CD 62 BD         call SFX_Play
2327  C73F
2328  C73F              .cc_done:
2329  C73F C1               pop bc
2330  C740 E1               pop hl
2331  C741 C9               ret
2332  C742
2333  C742              QBlockHit:
2334  C742 E5               push hl
2335  C743 21 3F 80         ld hl, coins
2336  C746 34               inc (hl)
2337  C747                  ; Add 50 points (BCD) to score[0], propagate carry to score[1] — Fix 39
2338  C747 21 3A 80         ld hl, score
2339  C74A 7E               ld a, (hl)
2340  C74B C6 50            add a, $50
2341  C74D 27               daa
2342  C74E 77               ld (hl), a
2343  C74F 30 06            jr nc, .qbh_no_carry
2344  C751 23               inc hl
2345  C752 7E               ld a, (hl)
2346  C753 C6 01            add a, $01
2347  C755 27               daa
2348  C756 77               ld (hl), a
2349  C757              .qbh_no_carry:
2350  C757 3E 01            ld a, SFX_COIN
2351  C759 CD 62 BD         call SFX_Play
2352  C75C E1               pop hl
2353  C75D C9               ret
2354  C75E
2355  C75E              ; CheckWalls: prevent player from walking through solid tiles horizontally.
2356  C75E              ; Fix 34: Previously there was no horizontal tile collision at all — the player
2357  C75E              ; could walk through any wall. Called from UpdatePlayer after applying vx.
2358  C75E              ; Only checks the direction the player is currently moving.
2359  C75E              CheckWalls:
2360  C75E E5               push hl
2361  C75F C5               push bc
2362  C760 D5               push de
2363  C761
2364  C761 3A 18 80         ld a, (plr_vx)
2365  C764 B7               or a
2366  C765 CA F8 C7         jp z, .cw_done      ; CHANGED: Fix 46 — was jr z, target $C7F3 is +144 bytes, exceeds ±127 jr range
2367  C768
2368  C768 FA C1 C7         jp m, .cw_check_left
2369  C76B
2370  C76B              .cw_check_right:
2371  C76B                  ; Two probes on the right edge (plr_x + PLR_W): top and bottom
2372  C76B 2A 16 80         ld hl, (plr_y)
2373  C76E 7D               ld a, l
2374  C76F C6 02            add a, 2
2375  C771 47               ld b, a             ; B = pixel_y top-right probe
2376  C772 2A 14 80         ld hl, (plr_x)
2377  C775 11 0C 00         ld de, PLR_W
2378  C778 19               add hl, de          ; HL = plr_x + PLR_W
2379  C779 CD 7A C6         call GetTileAt
2380  C77C CD BF C6         call IsSolid
2381  C77F 20 17            jr nz, .cw_block_right
2382  C781
2383  C781 2A 16 80         ld hl, (plr_y)
2384  C784 7D               ld a, l
2385  C785 C6 0C            add a, PLR_H - 2
2386  C787 47               ld b, a             ; B = pixel_y bottom-right probe
2387  C788 2A 14 80         ld hl, (plr_x)
2388  C78B 11 0C 00         ld de, PLR_W
2389  C78E 19               add hl, de
2390  C78F CD 7A C6         call GetTileAt
2391  C792 CD BF C6         call IsSolid
2392  C795 CA F8 C7         jp z, .cw_done      ; Fix 42a: was jr — target +143 bytes, exceeds jr range of ±127
2393  C798
2394  C798              .cw_block_right:
2395  C798                  ; Snap right edge to tile left boundary: plr_x = (right_edge & $F0) - PLR_W
2396  C798 2A 14 80         ld hl, (plr_x)
2397  C79B 11 0C 00         ld de, PLR_W
2398  C79E 19               add hl, de          ; HL = right_edge (16-bit)
2399  C79F 7D               ld a, l
2400  C7A0 E6 F0            and $F0
2401  C7A2 6F               ld l, a             ; clear low nibble of right_edge
2402  C7A3 11 0C 00         ld de, PLR_W
2403  C7A6 A7               and a               ; clear carry
2404  C7A7 ED 52            sbc hl, de          ; HL = snapped plr_x
2405  C7A9 DA B5 C7         jp c, .cw_r_clamp
2406  C7AC 22 14 80         ld (plr_x), hl
2407  C7AF AF               xor a
2408  C7B0 32 18 80         ld (plr_vx), a
2409  C7B3 18 43            jr .cw_done
2410  C7B5              .cw_r_clamp:
2411  C7B5 21 00 00         ld hl, 0
2412  C7B8 22 14 80         ld (plr_x), hl
2413  C7BB AF               xor a
2414  C7BC 32 18 80         ld (plr_vx), a
2415  C7BF 18 37            jr .cw_done
2416  C7C1
2417  C7C1              .cw_check_left:
2418  C7C1                  ; Two probes on the left edge (plr_x): top and bottom
2419  C7C1 2A 16 80         ld hl, (plr_y)
2420  C7C4 7D               ld a, l
2421  C7C5 C6 02            add a, 2
2422  C7C7 47               ld b, a             ; B = pixel_y top-left probe
2423  C7C8 2A 14 80         ld hl, (plr_x)      ; HL = plr_x (left edge)
2424  C7CB CD 7A C6         call GetTileAt
2425  C7CE CD BF C6         call IsSolid
2426  C7D1 20 12            jr nz, .cw_block_left
2427  C7D3
2428  C7D3 2A 16 80         ld hl, (plr_y)
2429  C7D6 7D               ld a, l
2430  C7D7 C6 0C            add a, PLR_H - 2
2431  C7D9 47               ld b, a             ; B = pixel_y bottom-left probe
2432  C7DA 2A 14 80         ld hl, (plr_x)
2433  C7DD CD 7A C6         call GetTileAt
2434  C7E0 CD BF C6         call IsSolid
2435  C7E3 28 13            jr z, .cw_done
2436  C7E5
2437  C7E5              .cw_block_left:
2438  C7E5                  ; Snap left edge to tile right boundary: plr_x = (plr_x & $F0) + 16
2439  C7E5 2A 14 80         ld hl, (plr_x)
2440  C7E8 7D               ld a, l
2441  C7E9 E6 F0            and $F0
2442  C7EB C6 10            add a, 16
2443  C7ED 6F               ld l, a
2444  C7EE 30 01            jr nc, .cw_l_ok
2445  C7F0 24               inc h
2446  C7F1              .cw_l_ok:
2447  C7F1 22 14 80         ld (plr_x), hl
2448  C7F4 AF               xor a
2449  C7F5 32 18 80         ld (plr_vx), a
2450  C7F8
2451  C7F8              .cw_done:
2452  C7F8 D1               pop de
2453  C7F9 C1               pop bc
2454  C7FA E1               pop hl
2455  C7FB C9               ret
2456  C7FC
2457  C7FC              UpdateCamera:
2458  C7FC E5               push hl                 ; CHANGED: Fix 50 — push hl first so pop hl at exit restores it correctly
2459  C7FD D5               push de                 ; CHANGED: Fix 50 — push de second so pop de at exit restores it correctly
2460  C7FE 2A 14 80         ld hl, (plr_x)
2461  C801 7D               ld a, l
2462  C802 D6 50            sub 80
2463  C804 6F               ld l, a
2464  C805 7C               ld a, h
2465  C806 DE 00            sbc a, 0
2466  C808 67               ld h, a
2467  C809
2468  C809 CB 7C            bit 7, h
2469  C80B 28 03            jr z, .uc_pos
2470  C80D 21 00 00         ld hl, 0
2471  C810              .uc_pos:
2472  C810 ED 5B 37 80      ld de, (cam_max)
2473  C814 7C               ld a, h
2474  C815 BA               cp d
2475  C816 DA 22 C8         jp c, .uc_clamp_ok
2476  C819 20 04            jr nz, .uc_clamp
2477  C81B 7D               ld a, l
2478  C81C BB               cp e
2479  C81D 38 03            jr c, .uc_clamp_ok
2480  C81F              .uc_clamp:
2481  C81F 2A 37 80         ld hl, (cam_max)
2482  C822              .uc_clamp_ok:
2483  C822
2484  C822                  ; Smooth scroll toward HL
2485  C822 ED 5B 35 80      ld de, (cam_x)
2486  C826 7C               ld a, h
2487  C827 BA               cp d
2488  C828 38 06            jr c, .uc_retreat
2489  C82A 20 0D            jr nz, .uc_advance
2490  C82C 7D               ld a, l
2491  C82D BB               cp e
2492  C82E 30 09            jr nc, .uc_advance
2493  C830
2494  C830              .uc_retreat:
2495  C830 7B               ld a, e
2496  C831 D6 02            sub 2
2497  C833 5F               ld e, a
2498  C834 30 0A            jr nc, .uc_set
2499  C836 15               dec d
2500  C837 18 07            jr .uc_set
2501  C839
2502  C839              .uc_advance:
2503  C839 7B               ld a, e
2504  C83A C6 02            add a, 2
2505  C83C 5F               ld e, a
2506  C83D 30 01            jr nc, .uc_set
2507  C83F 14               inc d
2508  C840
2509  C840              .uc_set:
2510  C840 ED 53 35 80      ld (cam_x), de
2511  C844
2512  C844 D1               pop de
2513  C845 E1               pop hl
2514  C846 C9               ret
2515  C847
2516  C847              ; ============================================================
2517  C847              ; ENEMY UPDATE & DRAW
2518  C847              ; ============================================================
2519  C847              UpdateEnemies:
2520  C847 C5               push bc
2521  C848 E5               push hl
2522  C849
2523  C849 06 08            ld b, MAX_ENEMIES
2524  C84B 0E 00            ld c, 0
2525  C84D
2526  C84D              .uen_loop:
2527  C84D C5               push bc
2528  C84E
2529  C84E 21 78 80         ld hl, ent_state
2530  C851 16 00            ld d, 0
2531  C853 59               ld e, c
2532  C854 19               add hl, de
2533  C855 7E               ld a, (hl)
2534  C856 B7               or a
2535  C857 CA E7 C8         jp z, .uen_skip
2536  C85A
2537  C85A                  ; Move by vx — Fix 26c: 16-bit movement
2538  C85A                  ; Step 1: ensure vx is initialised
2539  C85A 21 70 80         ld hl, ent_vx
2540  C85D 19               add hl, de
2541  C85E 7E               ld a, (hl)
2542  C85F B7               or a
2543  C860 20 02            jr nz, .uen_has_vx
2544  C862 36 FF            ld (hl), $FF            ; default: move left
2545  C864              .uen_has_vx:
2546  C864 47               ld b, a             ; B = vx (signed: $FF=-1, $01=+1)
2547  C865
2548  C865                  ; Step 2: load 16-bit position into IX
2549  C865                  ; Note: ld ixl,(hl) is illegal on Z80 — must go via A
2550  C865 21 50 80         ld hl, ent_xl
2551  C868 16 00            ld d, 0
2552  C86A 59               ld e, c
2553  C86B 19               add hl, de
2554  C86C 7E               ld a, (hl)
2555  C86D DD 6F            ld ixl, a           ; IXL = ent_xl (low byte)
2556  C86F 21 58 80         ld hl, ent_xh
2557  C872 19               add hl, de
2558  C873 7E               ld a, (hl)
2559  C874 DD 67            ld ixh, a           ; IXH = ent_xh (high byte)
2560  C876
2561  C876                  ; Step 3: add signed vx (B) to IX using 16-bit arithmetic
2562  C876                  ; Sign-extend: if B bit7 set → negative, high extension = $FF; else $00
2563  C876 DD 7D            ld a, ixl
2564  C878 80               add a, b            ; low byte: IXL + vx (sets carry)
2565  C879 DD 6F            ld ixl, a
2566  C87B CB 78            bit 7, b            ; test sign of vx
2567  C87D 28 08            jr z, .uen_vx_pos
2568  C87F                  ; vx negative: adc IXH with $FF (= borrow propagation)
2569  C87F DD 7C            ld a, ixh
2570  C881 CE FF            adc a, $FF
2571  C883 DD 67            ld ixh, a
2572  C885 18 06            jr .uen_chk_left
2573  C887              .uen_vx_pos:
2574  C887                  ; vx positive: adc IXH with $00 (carry only)
2575  C887 DD 7C            ld a, ixh
2576  C889 CE 00            adc a, 0
2577  C88B DD 67            ld ixh, a
2578  C88D
2579  C88D              .uen_chk_left:
2580  C88D                  ; Bounce: left edge pixel 8 → if IX < 8, reverse to rightward
2581  C88D DD 7C            ld a, ixh
2582  C88F B7               or a
2583  C890 20 11            jr nz, .uen_chk_right   ; IXH != 0: x >= 256, not near left
2584  C892 DD 7D            ld a, ixl
2585  C894 FE 08            cp 8
2586  C896 30 0B            jr nc, .uen_chk_right
2587  C898                  ; Hit left wall
2588  C898 21 70 80         ld hl, ent_vx
2589  C89B 16 00            ld d, 0
2590  C89D 59               ld e, c
2591  C89E 19               add hl, de
2592  C89F 36 01            ld (hl), 1
2593  C8A1 18 19            jr .uen_post_move
2594  C8A3
2595  C8A3              .uen_chk_right:
2596  C8A3                  ; Right edge: pixel 992 = $03E0 (tile MAP_W-2 = 62, *16 = 992)
2597  C8A3 DD 7C            ld a, ixh
2598  C8A5 FE 04            cp 4
2599  C8A7 30 0A            jr nc, .uen_hit_right   ; IXH >= 4 → x >= 1024, past edge
2600  C8A9 FE 03            cp 3
2601  C8AB 38 0F            jr c, .uen_post_move    ; IXH < 3 → x < 768, safely inside
2602  C8AD                  ; IXH == 3: check low byte >= $E0 ($03E0 = 992)
2603  C8AD DD 7D            ld a, ixl
2604  C8AF FE E0            cp $E0
2605  C8B1 38 09            jr c, .uen_post_move
2606  C8B3              .uen_hit_right:
2607  C8B3 21 70 80         ld hl, ent_vx
2608  C8B6 16 00            ld d, 0
2609  C8B8 59               ld e, c
2610  C8B9 19               add hl, de
2611  C8BA 36 FF            ld (hl), $FF
2612  C8BC
2613  C8BC              .uen_post_move:
2614  C8BC                  ; Step 4: store updated 16-bit position back
2615  C8BC                  ; Note: ld (hl),ixl is illegal — must go via A
2616  C8BC 21 50 80         ld hl, ent_xl
2617  C8BF 16 00            ld d, 0
2618  C8C1 59               ld e, c
2619  C8C2 19               add hl, de
2620  C8C3 DD 7D            ld a, ixl
2621  C8C5 77               ld (hl), a          ; ent_xl = new low byte
2622  C8C6 21 58 80         ld hl, ent_xh
2623  C8C9 19               add hl, de
2624  C8CA DD 7C            ld a, ixh
2625  C8CC 77               ld (hl), a          ; ent_xh = new high byte
2626  C8CD
2627  C8CD                  ; Animate
2628  C8CD 21 88 80         ld hl, ent_anim_cnt
2629  C8D0 16 00            ld d, 0
2630  C8D2 59               ld e, c
2631  C8D3 19               add hl, de
2632  C8D4 34               inc (hl)
2633  C8D5 7E               ld a, (hl)
2634  C8D6 FE 08            cp 8
2635  C8D8 38 0A            jr c, .uen_no_anim
2636  C8DA 36 00            ld (hl), 0
2637  C8DC 21 80 80         ld hl, ent_anim
2638  C8DF 19               add hl, de
2639  C8E0 7E               ld a, (hl)
2640  C8E1 EE 01            xor 1
2641  C8E3 77               ld (hl), a
2642  C8E4              .uen_no_anim:
2643  C8E4
2644  C8E4                  ; AABB vs player
2645  C8E4 CD F0 C8         call CheckEnemyPlayer
2646  C8E7
2647  C8E7              .uen_skip:
2648  C8E7 C1               pop bc
2649  C8E8 0C               inc c
2650  C8E9 05               dec b               ; djnz replacement — loop body > 127 bytes, jr can't reach
2651  C8EA C2 4D C8         jp nz, .uen_loop
2652  C8ED
2653  C8ED E1               pop hl
2654  C8EE C1               pop bc
2655  C8EF C9               ret
2656  C8F0
2657  C8F0              ; Check entity C against player
2658  C8F0              CheckEnemyPlayer:
2659  C8F0 E5               push hl
2660  C8F1 C5               push bc
2661  C8F2
2662  C8F2                  ; Fix 26c: 16-bit X collision check.
2663  C8F2                  ; Fast path: if ent_xh != plr_xh the entities are >256 pixels apart — no hit.
2664  C8F2 21 58 80         ld hl, ent_xh
2665  C8F5 16 00            ld d, 0
2666  C8F7 59               ld e, c
2667  C8F8 19               add hl, de
2668  C8F9 7E               ld a, (hl)          ; ent_xh
2669  C8FA
2670  C8FA 2A 14 80         ld hl, (plr_x)      ; HL = plr_x (16-bit DW)
2671  C8FD 94               sub h               ; ent_xh - plr_xh
2672  C8FE C2 81 C9         jp nz, .cep_no      ; Fix 42b: was jr — target +128 bytes, exceeds jr range of ±127
2673  C901
2674  C901                  ; Same 256-px page: compare low bytes only (sprites are 16 px wide)
2675  C901 21 50 80         ld hl, ent_xl
2676  C904 19               add hl, de
2677  C905 7E               ld a, (hl)
2678  C906 47               ld b, a             ; entity x low
2679  C907
2680  C907 7D               ld a, l             ; plr_x low byte (L was set by ld hl,(plr_x) above,
2681  C908                                      ; but HL was clobbered by add hl,de — reload)
2682  C908 3A 14 80         ld a, (plr_x)       ; player world x lo
2683  C90B 90               sub b
2684  C90C FA 16 C9         jp m, .cep_neg
2685  C90F FE 1C            cp PLR_W + 16
2686  C911 D2 81 C9         jp nc, .cep_no
2687  C914 18 07            jr .cep_y
2688  C916              .cep_neg:
2689  C916 ED 44            neg
2690  C918 FE 10            cp 16
2691  C91A D2 81 C9         jp nc, .cep_no
2692  C91D              .cep_y:
2693  C91D 21 60 80         ld hl, ent_yl
2694  C920 16 00            ld d, 0
2695  C922 59               ld e, c
2696  C923 19               add hl, de
2697  C924 7E               ld a, (hl)
2698  C925 47               ld b, a
2699  C926
2700  C926 3A 16 80         ld a, (plr_y)
2701  C929 90               sub b
2702  C92A FA 34 C9         jp m, .cep_above
2703  C92D FE 1E            cp PLR_H + 16
2704  C92F D2 81 C9         jp nc, .cep_no
2705  C932 18 07            jr .cep_hit
2706  C934              .cep_above:
2707  C934 ED 44            neg
2708  C936 FE 10            cp 16
2709  C938 D2 81 C9         jp nc, .cep_no
2710  C93B              .cep_hit:
2711  C93B                  ; Stomp if player moving down
2712  C93B 3A 19 80         ld a, (plr_vy)
2713  C93E CB 7F            bit 7, a
2714  C940 20 1C            jr nz, .cep_stomp
2715  C942
2716  C942                  ; Player hurt — if big, lose powerup and go invincible; if small, die
2717  C942 3A 22 80         ld a, (plr_inv_timer)
2718  C945 B7               or a
2719  C946 20 39            jr nz, .cep_no          ; already invincible
2720  C948 3A 21 80         ld a, (plr_big)
2721  C94B B7               or a
2722  C94C 28 0B            jr z, .cep_die
2723  C94E                  ; Big → lose powerup, gain 60-frame invincibility
2724  C94E AF               xor a
2725  C94F 32 21 80         ld (plr_big), a
2726  C952 3E 3C            ld a, 60
2727  C954 32 22 80         ld (plr_inv_timer), a
2728  C957 18 28            jr .cep_no
2729  C959              .cep_die:
2730  C959 CD 1C CD         call PlayerDie
2731  C95C 18 23            jr .cep_no
2732  C95E
2733  C95E              .cep_stomp:
2734  C95E                  ; Kill enemy
2735  C95E 21 78 80         ld hl, ent_state
2736  C961 16 00            ld d, 0
2737  C963 59               ld e, c
2738  C964 19               add hl, de
2739  C965 36 00            ld (hl), 0
2740  C967                  ; Bounce player
2741  C967 3E FB            ld a, 256 - 5
2742  C969 32 19 80         ld (plr_vy), a
2743  C96C                  ; Score +100 (BCD) with carry propagation — Fix 39
2744  C96C 21 3B 80         ld hl, score + 1
2745  C96F 7E               ld a, (hl)
2746  C970 C6 01            add a, $01
2747  C972 27               daa
2748  C973 77               ld (hl), a
2749  C974 30 06            jr nc, .stomp_no_carry
2750  C976 23               inc hl
2751  C977 7E               ld a, (hl)
2752  C978 C6 01            add a, $01
2753  C97A 27               daa
2754  C97B 77               ld (hl), a
2755  C97C              .stomp_no_carry:
2756  C97C 3E 03            ld a, SFX_STOMP
2757  C97E CD 62 BD         call SFX_Play
2758  C981
2759  C981              .cep_no:
2760  C981 C1               pop bc
2761  C982 E1               pop hl
2762  C983 C9               ret
2763  C984
2764  C984              DrawEnemies:
2765  C984 C5               push bc
2766  C985 DD E5            push ix
2767  C987 FD E5            push iy
2768  C989
2769  C989 06 08            ld b, MAX_ENEMIES
2770  C98B 0E 00            ld c, 0             ; C = entity index (0..MAX_ENEMIES-1)
2771  C98D
2772  C98D              .den_loop:
2773  C98D C5               push bc
2774  C98E
2775  C98E                  ; Save entity index in IYL so C can be reused for screen_y
2776  C98E FD 69            ld iyl, c
2777  C990
2778  C990                  ; DE = {0, entity_index} for array addressing
2779  C990 16 00            ld d, 0
2780  C992 59               ld e, c
2781  C993
2782  C993                  ; Check entity active
2783  C993 21 78 80         ld hl, ent_state
2784  C996 19               add hl, de
2785  C997 7E               ld a, (hl)
2786  C998 B7               or a
2787  C999 CA 26 CA         jp z, .den_skip
2788  C99C
2789  C99C                  ; Fix 26c: 16-bit screen_x = ent_x - cam_x
2790  C99C                  ; Load ent_x low byte into B, high byte into A
2791  C99C 21 50 80         ld hl, ent_xl
2792  C99F 19               add hl, de
2793  C9A0 46               ld b, (hl)          ; B = ent_xl (low byte of entity world x)
2794  C9A1 21 58 80         ld hl, ent_xh
2795  C9A4 19               add hl, de
2796  C9A5 7E               ld a, (hl)          ; A = ent_xh (high byte)
2797  C9A6                  ; 16-bit subtract: (A:B) - cam_x
2798  C9A6 2A 35 80         ld hl, (cam_x)      ; HL = cam_x (16-bit)
2799  C9A9 48               ld c, b             ; C = ent_xl (save before B reused)
2800  C9AA                  ; Low byte: ent_xl - cam_xl (sets carry if borrow)
2801  C9AA 47               ld b, a             ; B = ent_xh
2802  C9AB 79               ld a, c             ; A = ent_xl
2803  C9AC 95               sub l               ; A = ent_xl - cam_xl
2804  C9AD 4F               ld c, a             ; C = screen_x low byte
2805  C9AE                  ; High byte: ent_xh - cam_xh - borrow
2806  C9AE 78               ld a, b             ; A = ent_xh
2807  C9AF 9C               sbc a, h            ; A = ent_xh - cam_xh - borrow
2808  C9B0 DA 26 CA         jp c, .den_skip     ; negative: entity is left of camera
2809  C9B3 B7               or a
2810  C9B4 C2 26 CA         jp nz, .den_skip    ; high byte > 0: screen_x >= 256, off right
2811  C9B7                  ; screen_x = C (fits in 8 bits); must be < 240
2812  C9B7 79               ld a, c
2813  C9B8 FE F0            cp 240
2814  C9BA D2 26 CA         jp nc, .den_skip
2815  C9BD
2816  C9BD FD 67            ld iyh, a           ; save screen_x in IYH
2817  C9BF
2818  C9BF                  ; screen_y = ent_yl[idx]  (no vertical scroll)
2819  C9BF 21 60 80         ld hl, ent_yl
2820  C9C2 19               add hl, de
2821  C9C3 7E               ld a, (hl)
2822  C9C4 F5               push af             ; save screen_y
2823  C9C5
2824  C9C5                  ; Entity type → choose sprite
2825  C9C5 21 48 80         ld hl, ent_type
2826  C9C8 19               add hl, de
2827  C9C9 7E               ld a, (hl)
2828  C9CA
2829  C9CA FE 01            cp ENT_WALKER
2830  C9CC 20 14            jr nz, .den_sheller
2831  C9CE                  ; Use ent_anim to alternate between WALKER1 and WALKER2
2832  C9CE 21 80 80         ld hl, ent_anim
2833  C9D1 19               add hl, de
2834  C9D2 7E               ld a, (hl)
2835  C9D3 B7               or a
2836  C9D4 28 06            jr z, .den_g1
2837  C9D6 DD 21 C8 C3      ld ix, SPR_WALKER2
2838  C9DA 18 14            jr .den_draw
2839  C9DC              .den_g1:
2840  C9DC DD 21 A8 C3      ld ix, SPR_WALKER1
2841  C9E0 18 0E            jr .den_draw
2842  C9E2              .den_sheller:
2843  C9E2 FE 02            cp ENT_SHELLER
2844  C9E4 20 06            jr nz, .den_boss
2845  C9E6 DD 21 08 C4      ld ix, SPR_SHELLER1
2846  C9EA 18 04            jr .den_draw
2847  C9EC              .den_boss:
2848  C9EC DD 21 68 C4      ld ix, SPR_BOSS1
2849  C9F0
2850  C9F0              .den_draw:
2851  C9F0 F1               pop af
2852  C9F1 4F               ld c, a             ; screen_y
2853  C9F2 FE B0            cp 176              ; CHANGED: Fix 60 — was 177; screen_y=176 attr bottom row writes $5B00 (sysvar)
2854  C9F4 D2 26 CA         jp nc, .den_skip    ; CHANGED: Fix 49 — skip draw entirely if off-screen bottom
2855  C9F7 FD 44            ld b, iyh           ; screen_x
2856  C9F9
2857  C9F9                  ; Fix 53/66 — erase at previous screen position before drawing at new position.
2858  C9F9                  ; Fix 66: skip if ent_prev_sy[idx]=255 (InitLevel sentinel — not yet drawn).
2859  C9F9 C5               push bc             ; save new screen_x/screen_y
2860  C9FA DD E5            push ix             ; save chosen sprite
2861  C9FC 16 00            ld d, 0
2862  C9FE FD 5D            ld e, iyl           ; DE = entity index
2863  CA00 21 2D 80         ld hl, ent_prev_sy
2864  CA03 19               add hl, de
2865  CA04 4E               ld c, (hl)          ; C = prev screen_y
2866  CA05 79               ld a, c
2867  CA06 FE FF            cp 255              ; CHANGED: Fix 66 — 255 = never drawn, skip erase
2868  CA08 28 08            jr z, .den_skip_erase
2869  CA0A 21 25 80         ld hl, ent_prev_sx
2870  CA0D 19               add hl, de
2871  CA0E 46               ld b, (hl)          ; B = prev screen_x
2872  CA0F CD 2C C5         call EraseSprite    ; zero pixels at last drawn position
2873  CA12              .den_skip_erase:        ; CHANGED: Fix 66
2874  CA12 DD E1            pop ix
2875  CA14 C1               pop bc              ; restore new screen_x/screen_y
2876  CA15
2877  CA15 CD A8 C4         call DrawSprite
2878  CA18
2879  CA18 16 00            ld d, 0             ; CHANGED: Fix 53 — store new screen_x/screen_y as prev
2880  CA1A FD 5D            ld e, iyl
2881  CA1C 21 25 80         ld hl, ent_prev_sx
2882  CA1F 19               add hl, de
2883  CA20 70               ld (hl), b
2884  CA21 21 2D 80         ld hl, ent_prev_sy
2885  CA24 19               add hl, de
2886  CA25 71               ld (hl), c
2887  CA26
2888  CA26              .den_skip:
2889  CA26 C1               pop bc
2890  CA27                  ; Restore entity index from IYL for inc/loop
2891  CA27 FD 7D            ld a, iyl
2892  CA29 4F               ld c, a
2893  CA2A 0C               inc c
2894  CA2B 05               dec b               ; Fix 35: djnz can't reach .den_loop (loop body > 127 bytes)
2895  CA2C C2 8D C9         jp nz, .den_loop
2896  CA2F
2897  CA2F FD E1            pop iy
2898  CA31 DD E1            pop ix
2899  CA33 C1               pop bc
2900  CA34 C9               ret
2901  CA35
2902  CA35              ; ============================================================
2903  CA35              ; DRAW PLAYER
2904  CA35              ; ============================================================
2905  CA35              DrawPlayer:
2906  CA35 DD E5            push ix
2907  CA37 C5               push bc
2908  CA38
2909  CA38 3A 1F 80         ld a, (plr_dead)
2910  CA3B B7               or a
2911  CA3C 20 2B            jr nz, .dp_dead
2912  CA3E
2913  CA3E 3A 1D 80         ld a, (plr_on_ground)
2914  CA41 B7               or a
2915  CA42 28 1F            jr z, .dp_jumping
2916  CA44
2917  CA44 3A 18 80         ld a, (plr_vx)
2918  CA47 B7               or a
2919  CA48 28 13            jr z, .dp_standing
2920  CA4A
2921  CA4A 3A 1B 80         ld a, (plr_anim)
2922  CA4D E6 01            and $01
2923  CA4F 28 06            jr z, .dp_walk1
2924  CA51 DD 21 68 C3      ld ix, SPR_MARCO_WALK2
2925  CA55 18 16            jr .dp_draw
2926  CA57              .dp_walk1:
2927  CA57 DD 21 48 C3      ld ix, SPR_MARCO_WALK1
2928  CA5B 18 10            jr .dp_draw
2929  CA5D              .dp_standing:
2930  CA5D DD 21 28 C3      ld ix, SPR_MARCO_STAND
2931  CA61 18 0A            jr .dp_draw
2932  CA63              .dp_jumping:
2933  CA63 DD 21 88 C3      ld ix, SPR_MARCO_JUMP
2934  CA67 18 04            jr .dp_draw
2935  CA69              .dp_dead:
2936  CA69 DD 21 88 C3      ld ix, SPR_MARCO_JUMP
2937  CA6D
2938  CA6D              .dp_draw:
2939  CA6D                  ; Fix 32: 16-bit screen_x = plr_x - cam_x
2940  CA6D                  ; plr_x and cam_x are both DW; using only low byte fails once x > 255.
2941  CA6D 2A 14 80         ld hl, (plr_x)
2942  CA70 ED 5B 35 80      ld de, (cam_x)
2943  CA74 A7               and a               ; clear carry
2944  CA75 ED 52            sbc hl, de          ; HL = plr_x - cam_x (signed 16-bit)
2945  CA77 DA AC CA         jp c, .dp_done      ; negative: player left of camera, don't draw
2946  CA7A 7C               ld a, h
2947  CA7B B7               or a
2948  CA7C C2 AC CA         jp nz, .dp_done     ; >= 256: off right edge, don't draw
2949  CA7F 45               ld b, l             ; screen_x (0..255)
2950  CA80
2951  CA80 3A 16 80         ld a, (plr_y)
2952  CA83 4F               ld c, a             ; screen_y
2953  CA84 FE B0            cp 176              ; CHANGED: Fix 60 — was 177; screen_y=176 attr bottom row writes $5B00 (sysvar)
2954  CA86 D2 AC CA         jp nc, .dp_done     ; CHANGED: Fix 49 — to $5800 (attr area): skip draw to prevent crash
2955  CA89
2956  CA89                  ; Fix 53/66 — erase at previous screen position before drawing at new position.
2957  CA89                  ; Fix 66: skip if prev_sy=255 (InitLevel sentinel — not yet drawn this level).
2958  CA89                  ; prev_sy=255 → EraseSprite addr=$5Fxx (attr/sysvar area) → corrupts BANKM.
2959  CA89 C5               push bc             ; save new screen_x/screen_y
2960  CA8A DD E5            push ix             ; save chosen sprite
2961  CA8C 3A 24 80         ld a, (plr_prev_sy)
2962  CA8F FE FF            cp 255              ; CHANGED: Fix 66 — 255 = never drawn, skip erase
2963  CA91 28 0B            jr z, .dp_skip_erase
2964  CA93 3A 23 80         ld a, (plr_prev_sx)
2965  CA96 47               ld b, a             ; prev screen_x
2966  CA97 3A 24 80         ld a, (plr_prev_sy)
2967  CA9A 4F               ld c, a             ; prev screen_y
2968  CA9B CD 2C C5         call EraseSprite    ; zero pixels at last drawn position
2969  CA9E              .dp_skip_erase:         ; CHANGED: Fix 66
2970  CA9E DD E1            pop ix
2971  CAA0 C1               pop bc              ; restore new screen_x/screen_y
2972  CAA1
2973  CAA1 CD A8 C4         call DrawSprite
2974  CAA4
2975  CAA4 78               ld a, b             ; CHANGED: Fix 53 — store new screen_x/screen_y as prev for next frame
2976  CAA5 32 23 80         ld (plr_prev_sx), a
2977  CAA8 79               ld a, c
2978  CAA9 32 24 80         ld (plr_prev_sy), a
2979  CAAC              .dp_done:
2980  CAAC
2981  CAAC C1               pop bc
2982  CAAD DD E1            pop ix
2983  CAAF C9               ret
2984  CAB0
2985  CAB0              ; ============================================================
2986  CAB0              ; POWERUP
2987  CAB0              ; ============================================================
2988  CAB0              UpdatePowerup:
2989  CAB0 3A 93 80         ld a, (pwrup_active)
2990  CAB3 B7               or a
2991  CAB4 C8               ret z
2992  CAB5
2993  CAB5 3A 94 80         ld a, (pwrup_vy)
2994  CAB8 3C               inc a
2995  CAB9 FE 05            cp 5
2996  CABB 38 02            jr c, .upw_ok
2997  CABD 3E 04            ld a, 4
2998  CABF              .upw_ok:
2999  CABF 32 94 80         ld (pwrup_vy), a
3000  CAC2 21 92 80         ld hl, pwrup_yl
3001  CAC5 86               add a, (hl)
3002  CAC6 77               ld (hl), a
3003  CAC7
3004  CAC7                  ; Check overlap with player
3005  CAC7 3A 90 80         ld a, (pwrup_xl)
3006  CACA 47               ld b, a
3007  CACB 3A 14 80         ld a, (plr_x)
3008  CACE 90               sub b
3009  CACF FA D9 CA         jp m, .upw_xneg
3010  CAD2 FE 1C            cp PLR_W + 16
3011  CAD4 D2 07 CB         jp nc, .upw_no
3012  CAD7 18 07            jr .upw_y
3013  CAD9              .upw_xneg:
3014  CAD9 ED 44            neg
3015  CADB FE 10            cp 16
3016  CADD D2 07 CB         jp nc, .upw_no
3017  CAE0              .upw_y:
3018  CAE0 3A 92 80         ld a, (pwrup_yl)
3019  CAE3 47               ld b, a
3020  CAE4 3A 16 80         ld a, (plr_y)
3021  CAE7 90               sub b
3022  CAE8 FA F2 CA         jp m, .upw_yneg
3023  CAEB FE 1E            cp PLR_H + 16
3024  CAED D2 07 CB         jp nc, .upw_no
3025  CAF0 18 07            jr .upw_collect
3026  CAF2              .upw_yneg:
3027  CAF2 ED 44            neg
3028  CAF4 FE 10            cp 16
3029  CAF6 D2 07 CB         jp nc, .upw_no
3030  CAF9              .upw_collect:
3031  CAF9 AF               xor a
3032  CAFA 32 93 80         ld (pwrup_active), a
3033  CAFD 3E 01            ld a, 1
3034  CAFF 32 21 80         ld (plr_big), a
3035  CB02 3E 05            ld a, SFX_POWERUP
3036  CB04 CD 62 BD         call SFX_Play
3037  CB07              .upw_no:
3038  CB07 C9               ret
3039  CB08
3040  CB08              DrawPowerup:
3041  CB08 3A 93 80         ld a, (pwrup_active)
3042  CB0B B7               or a
3043  CB0C C8               ret z
3044  CB0D DD 21 48 C4      ld ix, SPR_PWRUP
3045  CB11                  ; Fix 38: 16-bit screen_x = pwrup_x - cam_x
3046  CB11                  ; pwrup_xl is 8-bit so build 16-bit value via L
3047  CB11 21 00 00         ld hl, 0
3048  CB14 3A 90 80         ld a, (pwrup_xl)
3049  CB17 6F               ld l, a             ; HL = pwrup_x (zero-extended to 16 bits)
3050  CB18 ED 5B 35 80      ld de, (cam_x)
3051  CB1C A7               and a               ; clear carry
3052  CB1D ED 52            sbc hl, de          ; HL = pwrup_x - cam_x
3053  CB1F D8               ret c               ; negative: off left of screen
3054  CB20 7C               ld a, h
3055  CB21 B7               or a
3056  CB22 C0               ret nz              ; >= 256: off right of screen
3057  CB23 45               ld b, l             ; screen_x
3058  CB24 3A 92 80         ld a, (pwrup_yl)
3059  CB27 4F               ld c, a
3060  CB28 FE B0            cp 176              ; CHANGED: Fix 60 — was 177; screen_y=176 attr bottom row writes $5B00 (sysvar)
3061  CB2A D0               ret nc              ; CHANGED: Fix 49 — skip draw (no pushed regs to restore, plain ret)
3062  CB2B CD A8 C4         call DrawSprite
3063  CB2E C9               ret
3064  CB2F
3065  CB2F              ; ============================================================
3066  CB2F              ; HUD
3067  CB2F              ; ============================================================
3068  CB2F              DrawHUD:
3069  CB2F E5               push hl
3070  CB30 C5               push bc
3071  CB31
3072  CB31 21 00 58         ld hl, ATTR_BASE
3073  CB34 06 40            ld b, 64
3074  CB36              .hud_clr:
3075  CB36 36 07            ld (hl), $07
3076  CB38 23               inc hl
3077  CB39 10 FB            djnz .hud_clr
3078  CB3B
3079  CB3B 21 E6 CB         ld hl, STR_SCORE
3080  CB3E 06 00            ld b, 0
3081  CB40 0E 00            ld c, 0
3082  CB42 CD 6E C0         call DrawString
3083  CB45
3084  CB45                  ; Fix 40: display 4 BCD digits: score[1] hi, score[1] lo, score[0] hi, score[0] lo
3085  CB45                  ; score[1] = hundreds/thousands column, score[0] = ones/tens column
3086  CB45 3A 3B 80         ld a, (score+1)
3087  CB48 F5               push af
3088  CB49 0F               rrca
3089  CB4A 0F               rrca
3090  CB4B 0F               rrca
3091  CB4C 0F               rrca
3092  CB4D E6 0F            and $0F
3093  CB4F C6 30            add a, '0'
3094  CB51 06 06            ld b, 6
3095  CB53 0E 00            ld c, 0
3096  CB55 CD FD BF         call DrawCharXY     ; thousands digit
3097  CB58
3098  CB58 04               inc b
3099  CB59 F1               pop af
3100  CB5A E6 0F            and $0F
3101  CB5C C6 30            add a, '0'
3102  CB5E CD FD BF         call DrawCharXY     ; hundreds digit
3103  CB61
3104  CB61 04               inc b
3105  CB62 3A 3A 80         ld a, (score)
3106  CB65 F5               push af
3107  CB66 0F               rrca
3108  CB67 0F               rrca
3109  CB68 0F               rrca
3110  CB69 0F               rrca
3111  CB6A E6 0F            and $0F
3112  CB6C C6 30            add a, '0'
3113  CB6E CD FD BF         call DrawCharXY     ; tens digit
3114  CB71
3115  CB71 04               inc b
3116  CB72 F1               pop af
3117  CB73 E6 0F            and $0F
3118  CB75 C6 30            add a, '0'
3119  CB77 CD FD BF         call DrawCharXY     ; units digit
3120  CB7A
3121  CB7A 21 EC CB         ld hl, STR_WORLD
3122  CB7D 06 10            ld b, 16
3123  CB7F 0E 00            ld c, 0
3124  CB81 CD 6E C0         call DrawString
3125  CB84 3A 40 80         ld a, (world)
3126  CB87 3C               inc a
3127  CB88 C6 30            add a, '0'
3128  CB8A 06 16            ld b, 22
3129  CB8C 0E 00            ld c, 0
3130  CB8E CD FD BF         call DrawCharXY
3131  CB91 3E 2D            ld a, '-'
3132  CB93 06 17            ld b, 23
3133  CB95 0E 00            ld c, 0
3134  CB97 CD FD BF         call DrawCharXY
3135  CB9A 3A 41 80         ld a, (level_num)
3136  CB9D 3C               inc a
3137  CB9E C6 30            add a, '0'
3138  CBA0 06 18            ld b, 24
3139  CBA2 0E 00            ld c, 0
3140  CBA4 CD FD BF         call DrawCharXY
3141  CBA7
3142  CBA7 21 F2 CB         ld hl, STR_LIVES
3143  CBAA 06 00            ld b, 0
3144  CBAC 0E 01            ld c, 1
3145  CBAE CD 6E C0         call DrawString
3146  CBB1 3A 3E 80         ld a, (lives)
3147  CBB4 06 06            ld b, 6
3148  CBB6 0E 01            ld c, 1
3149  CBB8 CD 7E C0         call DrawDigit
3150  CBBB
3151  CBBB 21 F8 CB         ld hl, STR_TIME
3152  CBBE 06 14            ld b, 20
3153  CBC0 0E 01            ld c, 1
3154  CBC2 CD 6E C0         call DrawString
3155  CBC5 3A 42 80         ld a, (level_timer)     ; low byte (0-199)
3156  CBC8 06 19            ld b, 25
3157  CBCA 0E 01            ld c, 1
3158  CBCC CD A1 C0         call DrawDecimal3
3159  CBCF
3160  CBCF 21 FD CB         ld hl, STR_COINS
3161  CBD2 06 00            ld b, 0
3162  CBD4 0E 02            ld c, 2
3163  CBD6 CD 6E C0         call DrawString
3164  CBD9 3A 3F 80         ld a, (coins)
3165  CBDC 06 06            ld b, 6
3166  CBDE 0E 02            ld c, 2
3167  CBE0 CD 83 C0         call DrawDecimal2
3168  CBE3
3169  CBE3 C1               pop bc
3170  CBE4 E1               pop hl
3171  CBE5 C9               ret
3172  CBE6
3173  CBE6 53 43 4F 52  STR_SCORE:  DEFB "SCORE", 0
3173  CBEA 45 00
3174  CBEC 57 4F 52 4C  STR_WORLD:  DEFB "WORLD", 0
3174  CBF0 44 00
3175  CBF2 4C 49 56 45  STR_LIVES:  DEFB "LIVES", 0
3175  CBF6 53 00
3176  CBF8 54 49 4D 45  STR_TIME:   DEFB "TIME", 0
3176  CBFC 00
3177  CBFD 43 4F 49 4E  STR_COINS:  DEFB "COINS", 0
3177  CC01 53 00
3178  CC03
3179  CC03              ; ============================================================
3180  CC03              ; TITLE SCREEN
3181  CC03              ; ============================================================
3182  CC03              TitleScreen:
3183  CC03 CD 9B BF         call ClearScreen
3184  CC06 3E 01            ld a, 1
3185  CC08 D3 FE            out (PORT_ULA), a
3186  CC0A
3187  CC0A 21 3A CC         ld hl, STR_TITLE1
3188  CC0D 06 09            ld b, 9
3189  CC0F 0E 08            ld c, 8
3190  CC11 CD 6E C0         call DrawString
3191  CC14
3192  CC14 21 49 CC         ld hl, STR_TITLE2
3193  CC17 06 07            ld b, 7
3194  CC19 0E 0A            ld c, 10
3195  CC1B CD 6E C0         call DrawString
3196  CC1E
3197  CC1E 21 5A CC         ld hl, STR_TITLE3
3198  CC21 06 04            ld b, 4
3199  CC23 0E 12            ld c, 18
3200  CC25 CD 6E C0         call DrawString
3201  CC28
3202  CC28 21 1F BF         ld hl, MUSIC_TITLE
3203  CC2B CD DB BC         call Music_Init
3204  CC2E
3205  CC2E              .ts_wait:
3206  CC2E 76               halt
3207  CC2F 3A 96 80         ld a, (joy_new)
3208  CC32 CB 67            bit 4, a
3209  CC34 28 F8            jr z, .ts_wait
3210  CC36
3211  CC36 CD EB BC         call Music_Stop
3212  CC39 C9               ret
3213  CC3A
3214  CC3A 4D 41 52 43  STR_TITLE1: DEFB "MARCO BROS 128", 0
3214  CC3E 4F 20 42 52
3214  CC42 4F 53 20 31
3214  CC46 32 38 00
3215  CC49 5A 58 20 53  STR_TITLE2: DEFB "ZX SPECTRUM 128K", 0
3215  CC4D 50 45 43 54
3215  CC51 52 55 4D 20
3215  CC55 31 32 38 4B
3215  CC59 00
3216  CC5A 46 49 52 45  STR_TITLE3: DEFB "FIRE TO START", 0
3216  CC5E 20 54 4F 20
3216  CC62 53 54 41 52
3216  CC66 54 00
3217  CC68
3218  CC68              ShowLevelEntry:
3219  CC68 CD 9B BF         call ClearScreen
3220  CC6B 21 EC CB         ld hl, STR_WORLD
3221  CC6E 06 0A            ld b, 10
3222  CC70 0E 0A            ld c, 10
3223  CC72 CD 6E C0         call DrawString
3224  CC75 3A 40 80         ld a, (world)
3225  CC78 3C               inc a
3226  CC79 C6 30            add a, '0'
3227  CC7B 06 10            ld b, 16
3228  CC7D 0E 0A            ld c, 10
3229  CC7F CD FD BF         call DrawCharXY
3230  CC82 3E 2D            ld a, '-'
3231  CC84 06 11            ld b, 17
3232  CC86 0E 0A            ld c, 10
3233  CC88 CD FD BF         call DrawCharXY
3234  CC8B 3A 41 80         ld a, (level_num)
3235  CC8E 3C               inc a
3236  CC8F C6 30            add a, '0'
3237  CC91 06 12            ld b, 18
3238  CC93 0E 0A            ld c, 10
3239  CC95 CD FD BF         call DrawCharXY
3240  CC98 21 F2 CB         ld hl, STR_LIVES
3241  CC9B 06 09            ld b, 9
3242  CC9D 0E 0E            ld c, 14
3243  CC9F CD 6E C0         call DrawString
3244  CCA2 3A 3E 80         ld a, (lives)
3245  CCA5 06 10            ld b, 16
3246  CCA7 0E 0E            ld c, 14
3247  CCA9 CD 7E C0         call DrawDigit
3248  CCAC 06 64            ld b, 100
3249  CCAE              .sle_wait:
3250  CCAE 76               halt
3251  CCAF 10 FD            djnz .sle_wait
3252  CCB1 C9               ret
3253  CCB2
3254  CCB2              ShowGameOver:
3255  CCB2 CD EB BC         call Music_Stop
3256  CCB5 CD 9B BF         call ClearScreen
3257  CCB8 21 F9 CC         ld hl, STR_GAMEOVER
3258  CCBB 06 08            ld b, 8
3259  CCBD 0E 0B            ld c, 11
3260  CCBF CD 6E C0         call DrawString
3261  CCC2 06 78            ld b, 120
3262  CCC4              .sgo_wait:
3263  CCC4 76               halt
3264  CCC5 10 FD            djnz .sgo_wait
3265  CCC7              .sgo_fire:
3266  CCC7 76               halt
3267  CCC8 3A 96 80         ld a, (joy_new)
3268  CCCB CB 67            bit 4, a
3269  CCCD 28 F8            jr z, .sgo_fire
3270  CCCF C9               ret
3271  CCD0
3272  CCD0              ShowVictory:
3273  CCD0 CD EB BC         call Music_Stop
3274  CCD3 CD 9B BF         call ClearScreen
3275  CCD6 21 03 CD         ld hl, STR_WIN1
3276  CCD9 06 07            ld b, 7
3277  CCDB 0E 09            ld c, 9
3278  CCDD CD 6E C0         call DrawString
3279  CCE0 21 0C CD         ld hl, STR_WIN2
3280  CCE3 06 06            ld b, 6
3281  CCE5 0E 0C            ld c, 12
3282  CCE7 CD 6E C0         call DrawString
3283  CCEA 21 1F BF         ld hl, MUSIC_TITLE
3284  CCED CD DB BC         call Music_Init
3285  CCF0 06 00            ld b, 0
3286  CCF2              .sv_wait:
3287  CCF2 76               halt
3288  CCF3 10 FD            djnz .sv_wait
3289  CCF5 CD EB BC         call Music_Stop
3290  CCF8 C9               ret
3291  CCF9
3292  CCF9 47 41 4D 45  STR_GAMEOVER: DEFB "GAME OVER", 0
3292  CCFD 20 4F 56 45
3292  CD01 52 00
3293  CD03 59 4F 55 20  STR_WIN1:     DEFB "YOU WIN!", 0
3293  CD07 57 49 4E 21
3293  CD0B 00
3294  CD0C 43 4F 4E 47  STR_WIN2:     DEFB "CONGRATULATIONS", 0
3294  CD10 52 41 54 55
3294  CD14 4C 41 54 49
3294  CD18 4F 4E 53 00
3295  CD1C
3296  CD1C              PlayerDie:
3297  CD1C 3A 1F 80         ld a, (plr_dead)
3298  CD1F B7               or a
3299  CD20 C0               ret nz
3300  CD21 3E 01            ld a, 1
3301  CD23 32 1F 80         ld (plr_dead), a
3302  CD26 AF               xor a
3303  CD27 32 20 80         ld (plr_dead_timer), a
3304  CD2A 3E F8            ld a, 256 - 8
3305  CD2C 32 19 80         ld (plr_vy), a
3306  CD2F 3E 02            ld a, STATE_DEAD
3307  CD31 32 39 80         ld (game_state), a
3308  CD34 3E 04            ld a, SFX_DIE
3309  CD36 CD 62 BD         call SFX_Play
3310  CD39 CD EB BC         call Music_Stop
3311  CD3C C9               ret
3312  CD3D
3313  CD3D              CheckLevelEnd:
3314  CD3D                  ; Centre probe: pixel_x = plr_x + 8, pixel_y = plr_y + 8
3315  CD3D 2A 16 80         ld hl, (plr_y)
3316  CD40 7D               ld a, l
3317  CD41 C6 08            add a, 8
3318  CD43 47               ld b, a             ; B = pixel_y — Fix 33
3319  CD44 2A 14 80         ld hl, (plr_x)      ; HL = plr_x (16-bit) — Fix 33
3320  CD47 11 08 00         ld de, 8
3321  CD4A 19               add hl, de          ; HL = plr_x + 8
3322  CD4B CD 7A C6         call GetTileAt
3323  CD4E FE 06            cp TILE_FLAG
3324  CD50 C0               ret nz
3325  CD51 3E 03            ld a, STATE_LEVELEND
3326  CD53 32 39 80         ld (game_state), a
3327  CD56 3E 07            ld a, SFX_LEVELEND
3328  CD58 CD 62 BD         call SFX_Play
3329  CD5B C9               ret
3330  CD5C
3331  CD5C              ; ============================================================
3332  CD5C              ; INIT
3333  CD5C              ; ============================================================
3334  CD5C              InitGame:
3335  CD5C 3E 03            ld a, 3
3336  CD5E 32 3E 80         ld (lives), a
3337  CD61 AF               xor a
3338  CD62 32 3A 80         ld (score), a
3339  CD65 32 3B 80         ld (score+1), a
3340  CD68 32 3C 80         ld (score+2), a
3341  CD6B 32 3D 80         ld (score+3), a
3342  CD6E 32 3F 80         ld (coins), a
3343  CD71 32 40 80         ld (world), a
3344  CD74 32 41 80         ld (level_num), a
3345  CD77 C9               ret
3346  CD78
3347  CD78              InitLevel:
3348  CD78 CD 9B BF         call ClearScreen        ; CHANGED: Fix 51 — erase ShowLevelEntry text before gameplay starts
3349  CD7B AF               xor a                   ; CHANGED: Fix 54 — ClearScreen leaves A=1 (border colour); must zero A before zero-inits
3350  CD7C 32 1F 80         ld (plr_dead), a
3351  CD7F 32 20 80         ld (plr_dead_timer), a
3352  CD82 32 18 80         ld (plr_vx), a
3353  CD85 32 19 80         ld (plr_vy), a
3354  CD88 32 1D 80         ld (plr_on_ground), a
3355  CD8B 32 1E 80         ld (plr_jumping), a
3356  CD8E 32 21 80         ld (plr_big), a
3357  CD91 21 20 00         ld hl, 32
3358  CD94 22 14 80         ld (plr_x), hl
3359  CD97 21 90 00         ld hl, 144
3360  CD9A 22 16 80         ld (plr_y), hl
3361  CD9D 21 00 00         ld hl, 0
3362  CDA0 22 35 80         ld (cam_x), hl
3363  CDA3 21 C7 00         ld hl, 199          ; CHANGED: Fix 52 — was 200; DrawDecimal3 range is 0-199 (200 displays as '100')
3364  CDA6 22 42 80         ld (level_timer), hl
3365  CDA9 AF               xor a
3366  CDAA 32 44 80         ld (timer_cnt), a
3367  CDAD
3368  CDAD                  ; Fix 62 — initialise prev screen positions to 255 (off-screen).
3369  CDAD                  ; Without this, prev_sx/sy = 0 on first frame → EraseSprite clears
3370  CDAD                  ; top-left corner of screen → HUD flicker on first draw frame.
3371  CDAD 3E FF            ld a, 255               ; CHANGED: Fix 62 — off-screen sentinel
3372  CDAF 32 23 80         ld (plr_prev_sx), a
3373  CDB2 32 24 80         ld (plr_prev_sy), a
3374  CDB5 21 25 80         ld hl, ent_prev_sx
3375  CDB8 11 26 80         ld de, ent_prev_sx+1
3376  CDBB 01 07 00         ld bc, MAX_ENEMIES-1
3377  CDBE 36 FF            ld (hl), 255
3378  CDC0 ED B0            ldir                    ; CHANGED: Fix 62 — fill ent_prev_sx[0..7] = 255
3379  CDC2 21 2D 80         ld hl, ent_prev_sy
3380  CDC5 11 2E 80         ld de, ent_prev_sy+1
3381  CDC8 01 07 00         ld bc, MAX_ENEMIES-1
3382  CDCB 36 FF            ld (hl), 255
3383  CDCD ED B0            ldir                    ; CHANGED: Fix 62 — fill ent_prev_sy[0..7] = 255
3384  CDCF
3385  CDCF 21 78 80         ld hl, ent_state
3386  CDD2 11 79 80         ld de, ent_state+1
3387  CDD5 01 07 00         ld bc, MAX_ENEMIES-1
3388  CDD8 36 00            ld (hl), 0
3389  CDDA ED B0            ldir
3390  CDDC 21 48 80         ld hl, ent_type
3391  CDDF 11 49 80         ld de, ent_type+1
3392  CDE2 01 07 00         ld bc, MAX_ENEMIES-1
3393  CDE5 36 00            ld (hl), 0
3394  CDE7 ED B0            ldir
3395  CDE9
3396  CDE9 3A 40 80         ld a, (world)
3397  CDEC B7               or a
3398  CDED 20 04            jr nz, .il_w1
3399  CDEF 3E 00            ld a, 0
3400  CDF1 18 0A            jr .il_setbank
3401  CDF3              .il_w1:
3402  CDF3 FE 01            cp 1
3403  CDF5 20 04            jr nz, .il_w2
3404  CDF7 3E 01            ld a, 1
3405  CDF9 18 02            jr .il_setbank
3406  CDFB              .il_w2:
3407  CDFB 3E 03            ld a, 3
3408  CDFD              .il_setbank:
3409  CDFD 32 45 80         ld (cur_level_bank), a
3410  CE00
3411  CE00 CD AF 83         call SetLevelMapPtr
3412  CE03
3413  CE03                  ; DoLevelBanking lives in bank2 (fixed) — it pages in the level bank,
3414  CE03                  ; copies map+spawns to bank2 caches, then restores bank7.
3415  CE03                  ; CRITICAL: cannot call BankSwitch directly here (bank7 suicide). (Fix 25d)
3416  CE03 CD CB 83         call DoLevelBanking
3417  CE06
3418  CE06 3A 41 80         ld a, (level_num)
3419  CE09 FE 02            cp 2
3420  CE0B 28 08            jr z, .il_boss_music
3421  CE0D 21 55 BE         ld hl, MUSIC_OVERWORLD
3422  CE10 CD DB BC         call Music_Init
3423  CE13 18 06            jr .il_music_done
3424  CE15              .il_boss_music:
3425  CE15 21 C9 BE         ld hl, MUSIC_BOSS
3426  CE18 CD DB BC         call Music_Init
3427  CE1B              .il_music_done:
3428  CE1B
3429  CE1B 3E 01            ld a, STATE_PLAYING
3430  CE1D 32 39 80         ld (game_state), a
3431  CE20 C9               ret
3432  CE21
3433  CE21              ; SetLevelMapPtr / LoadLevelMap / LoadEnemySpawns are in bank2 (fixed)
3434  CE21              ; so they survive BankSwitch calls during InitLevel.
3435  CE21
3436  CE21              ; ============================================================
3437  CE21              ; MAIN GAME LOOP
3438  CE21              ; ============================================================
3439  CE21              MainLoop:
3440  CE21 3E 01            ld a, 1
3440  CE23 D3 FE          out ($FE), a   ; blue = entering TitleScreen
3441  CE25 CD 03 CC         call TitleScreen
3442  CE28
3443  CE28              .mg_restart:
3444  CE28 3E 02            ld a, 2
3444  CE2A D3 FE          out ($FE), a   ; red = entering InitGame
3445  CE2C CD 5C CD         call InitGame
3446  CE2F
3447  CE2F              .mg_level:
3448  CE2F 3E 03            ld a, 3
3448  CE31 D3 FE          out ($FE), a   ; magenta = ShowLevelEntry
3449  CE33 CD 68 CC         call ShowLevelEntry
3450  CE36 3E 04            ld a, 4
3450  CE38 D3 FE          out ($FE), a   ; green = InitLevel
3451  CE3A CD 78 CD         call InitLevel
3452  CE3D 3E 05            ld a, 5
3452  CE3F D3 FE          out ($FE), a   ; cyan = entering game loop
3453  CE41
3454  CE41              .mg_frame:
3455  CE41 76               halt
3456  CE42
3457  CE42 3A 39 80         ld a, (game_state)
3458  CE45 FE 01            cp STATE_PLAYING
3459  CE47 C2 72 CE         jp nz, .mg_other
3460  CE4A
3461  CE4A                  ; All map data is in level_map_cache (fixed bank2). Bank7 must stay paged
3462  CE4A                  ; for DrawCharXY_Real. We never need to page the level bank during gameplay.
3463  CE4A
3464  CE4A CD 70 C5         call UpdatePlayer
3465  CE4D CD 47 C8         call UpdateEnemies
3466  CE50 CD B0 CA         call UpdatePowerup
3467  CE53 CD 3D CD         call CheckLevelEnd
3468  CE56
3469  CE56                  ; Check level timer expiry
3470  CE56 2A 42 80         ld hl, (level_timer)
3471  CE59 7C               ld a, h
3472  CE5A B5               or l
3473  CE5B 20 03            jr nz, .mg_timer_ok
3474  CE5D CD 1C CD         call PlayerDie
3475  CE60              .mg_timer_ok:
3476  CE60
3477  CE60 CD BA C2         call RenderLevel
3478  CE63 CD 08 CB         call DrawPowerup
3479  CE66 CD 84 C9         call DrawEnemies
3480  CE69 CD 35 CA         call DrawPlayer
3481  CE6C CD 2F CB         call DrawHUD
3482  CE6F
3483  CE6F C3 41 CE         jp .mg_frame
3484  CE72
3485  CE72              .mg_other:
3486  CE72 FE 02            cp STATE_DEAD
3487  CE74 CA 89 CE         jp z, .mg_dead
3488  CE77 FE 03            cp STATE_LEVELEND
3489  CE79 CA CD CE         jp z, .mg_levelend
3490  CE7C FE 05            cp STATE_GAMEOVER
3491  CE7E CA EF CE         jp z, .mg_gameover
3492  CE81 FE 06            cp STATE_WIN
3493  CE83 CA F5 CE         jp z, .mg_win
3494  CE86 C3 41 CE         jp .mg_frame
3495  CE89
3496  CE89              .mg_dead:
3497  CE89 21 20 80         ld hl, plr_dead_timer
3498  CE8C 34               inc (hl)
3499  CE8D 7E               ld a, (hl)
3500  CE8E FE 3C            cp 60
3501  CE90 D2 BC CE         jp nc, .mg_respawn
3502  CE93
3503  CE93                  ; Death bounce
3504  CE93 FE 19            cp 25
3505  CE95 30 0C            jr nc, .mg_dfalling
3506  CE97 2A 16 80         ld hl, (plr_y)
3507  CE9A 7D               ld a, l
3508  CE9B D6 03            sub 3
3509  CE9D 6F               ld l, a
3510  CE9E 22 16 80         ld (plr_y), hl
3511  CEA1 18 0A            jr .mg_drender
3512  CEA3              .mg_dfalling:
3513  CEA3 2A 16 80         ld hl, (plr_y)
3514  CEA6 7D               ld a, l
3515  CEA7 C6 04            add a, 4
3516  CEA9 6F               ld l, a
3517  CEAA 22 16 80         ld (plr_y), hl
3518  CEAD
3519  CEAD              .mg_drender:
3520  CEAD CD BA C2         call RenderLevel
3521  CEB0 CD 84 C9         call DrawEnemies        ; CHANGED: Fix 64 — erase+redraw enemies during death anim to clear trails
3522  CEB3 CD 35 CA         call DrawPlayer
3523  CEB6 CD 2F CB         call DrawHUD
3524  CEB9 C3 41 CE         jp .mg_frame
3525  CEBC
3526  CEBC              .mg_respawn:
3527  CEBC 21 3E 80         ld hl, lives
3528  CEBF 35               dec (hl)
3529  CEC0 7E               ld a, (hl)
3530  CEC1 B7               or a
3531  CEC2 CA EF CE         jp z, .mg_gameover
3532  CEC5 3E 01            ld a, STATE_PLAYING
3533  CEC7 32 39 80         ld (game_state), a
3534  CECA                  ; Fix 36: removed 'call InitLevel' here — jp .mg_level calls ShowLevelEntry
3535  CECA                  ; then InitLevel, so calling InitLevel here was doing a full double-init.
3536  CECA C3 2F CE         jp .mg_level
3537  CECD
3538  CECD              .mg_levelend:
3539  CECD 06 64            ld b, 100
3540  CECF              .mg_le_wait:
3541  CECF 76               halt
3542  CED0 10 FD            djnz .mg_le_wait
3543  CED2
3544  CED2 21 41 80         ld hl, level_num
3545  CED5 34               inc (hl)
3546  CED6 7E               ld a, (hl)
3547  CED7 FE 03            cp 3
3548  CED9 20 0C            jr nz, .mg_nextlevel
3549  CEDB 36 00            ld (hl), 0
3550  CEDD 21 40 80         ld hl, world
3551  CEE0 34               inc (hl)
3552  CEE1 7E               ld a, (hl)
3553  CEE2 FE 03            cp 3
3554  CEE4 D2 F5 CE         jp nc, .mg_win
3555  CEE7              .mg_nextlevel:
3556  CEE7 3E 01            ld a, STATE_PLAYING
3557  CEE9 32 39 80         ld (game_state), a
3558  CEEC C3 2F CE         jp .mg_level
3559  CEEF
3560  CEEF              .mg_gameover:
3561  CEEF CD B2 CC         call ShowGameOver
3562  CEF2 C3 28 CE         jp .mg_restart
3563  CEF5
3564  CEF5              .mg_win:
3565  CEF5 CD D0 CC         call ShowVictory
3566  CEF8 C3 28 CE         jp .mg_restart
3567  CEFB
3568  CEFB              ; ============================================================
3569  CEFB              ; IM2 VECTOR TABLE
3570  CEFB              ; ============================================================
3571  CEFB                  ORG IM2_TABLE
3572  7E00 BC BC BC...      DS 257, $BC
3573  7F01
3574  7F01              ; ============================================================
3575  7F01              ; FONT DATA ($8E00 in Bank 2) — Custom chars ASCII 128-255 only
3576  7F01              ; Fix 41: ASCII 32-127 removed. Those chars now use the ROM 1 font
3577  7F01              ; at $3D00 (48K BASIC ROM), permanently paged via BankSwitch/BANKM.
3578  7F01              ; Freed 520 bytes ($8E00-$9007) in Bank 2.
3579  7F01              ; To add a custom tile char: append DEFB entries here (8 bytes each).
3580  7F01              ; First entry = char 128, second = char 129, etc.
3581  7F01              ; ============================================================
3582  7F01                  ORG ENGINE_BASE + $0E00
3583  8E00
3584  8E00              FONT_DATA:
3585  8E00              ; (no custom chars defined yet)
3586  8E00
3587  8E00              ; ============================================================
3588  8E00              ; BANK 0 — WORLD 1 DATA ($C000 when bank 0 paged)
3589  8E00              ; ============================================================
3590  8E00                  PAGE 0
3591  8E00                  ORG $C000
3592  C000
3593  C000              W1L1_MAP:
3594  C000                  ; Row 0 sky
3595  C000 00 00 00 00      DEFB 0,0,0,0,0,0,0,0,0,0,0,0,0,0,0,0,0,0,0,0,0,0,0,0,0,0,0,0,0,0,0,0
3595  C004 00 00 00 00
3595  C008 00 00 00 00
3595  C00C 00 00 00 00
3595  C010 00 00 00 00
3595  C014 00 00 00 00
3595  C018 00 00 00 00
3595  C01C 00 00 00 00
3596  C020 00 00 00 00      DEFB 0,0,0,0,0,0,0,0,0,0,0,0,0,0,0,0,0,0,0,0,0,0,0,0,0,0,0,0,0,0,0,0
3596  C024 00 00 00 00
3596  C028 00 00 00 00
3596  C02C 00 00 00 00
3596  C030 00 00 00 00
3596  C034 00 00 00 00
3596  C038 00 00 00 00
3596  C03C 00 00 00 00
3597  C040                  ; Row 1 elevated bricks + Q-blocks
3598  C040 00 00 00 00      DEFB 0,0,0,0,0,0,0,0,0,0,0,0,2,2,2,2,3,0,0,0,0,0,2,2,0,0,0,0,0,0,0,3
3598  C044 00 00 00 00
3598  C048 00 00 00 00
3598  C04C 02 02 02 02
3598  C050 03 00 00 00
3598  C054 00 00 02 02
3598  C058 00 00 00 00
3598  C05C 00 00 00 03
3599  C060 00 00 00 00      DEFB 0,0,0,0,0,0,0,0,0,0,0,0,0,0,0,0,3,0,0,0,0,0,0,0,0,0,0,0,0,0,0,0
3599  C064 00 00 00 00
3599  C068 00 00 00 00
3599  C06C 00 00 00 00
3599  C070 03 00 00 00
3599  C074 00 00 00 00
3599  C078 00 00 00 00
3599  C07C 00 00 00 00
3600  C080                  ; Row 2 sky
3601  C080 00 00 00 00      DEFB 0,0,0,0,0,0,0,0,0,0,0,0,0,0,0,0,0,0,0,0,0,0,0,0,0,0,0,0,0,0,0,0
3601  C084 00 00 00 00
3601  C088 00 00 00 00
3601  C08C 00 00 00 00
3601  C090 00 00 00 00
3601  C094 00 00 00 00
3601  C098 00 00 00 00
3601  C09C 00 00 00 00
3602  C0A0 00 00 00 00      DEFB 0,0,0,0,0,0,0,0,0,0,0,0,0,0,0,0,0,0,0,0,0,0,0,0,0,0,0,0,0,0,0,0
3602  C0A4 00 00 00 00
3602  C0A8 00 00 00 00
3602  C0AC 00 00 00 00
3602  C0B0 00 00 00 00
3602  C0B4 00 00 00 00
3602  C0B8 00 00 00 00
3602  C0BC 00 00 00 00
3603  C0C0                  ; Row 3 mid platform
3604  C0C0 00 00 00 00      DEFB 0,0,0,0,0,0,0,0,0,0,0,0,0,0,0,0,0,0,0,0,0,0,0,0,2,3,2,2,2,0,0,0
3604  C0C4 00 00 00 00
3604  C0C8 00 00 00 00
3604  C0CC 00 00 00 00
3604  C0D0 00 00 00 00
3604  C0D4 00 00 00 00
3604  C0D8 02 03 02 02
3604  C0DC 02 00 00 00
3605  C0E0 00 00 00 00      DEFB 0,0,0,0,0,0,0,0,0,0,0,0,0,0,0,0,0,0,0,0,0,0,0,0,0,0,0,0,0,0,0,0
3605  C0E4 00 00 00 00
3605  C0E8 00 00 00 00
3605  C0EC 00 00 00 00
3605  C0F0 00 00 00 00
3605  C0F4 00 00 00 00
3605  C0F8 00 00 00 00
3605  C0FC 00 00 00 00
3606  C100                  ; Row 4 sky
3607  C100 00 00 00 00      DEFB 0,0,0,0,0,0,0,0,0,0,0,0,0,0,0,0,0,0,0,0,0,0,0,0,0,0,0,0,0,0,0,0
3607  C104 00 00 00 00
3607  C108 00 00 00 00
3607  C10C 00 00 00 00
3607  C110 00 00 00 00
3607  C114 00 00 00 00
3607  C118 00 00 00 00
3607  C11C 00 00 00 00
3608  C120 00 00 00 00      DEFB 0,0,0,0,0,0,0,0,0,0,0,0,0,0,0,0,0,0,0,0,0,0,0,0,0,0,0,0,0,0,0,0
3608  C124 00 00 00 00
3608  C128 00 00 00 00
3608  C12C 00 00 00 00
3608  C130 00 00 00 00
3608  C134 00 00 00 00
3608  C138 00 00 00 00
3608  C13C 00 00 00 00
3609  C140                  ; Row 5 pipes + platform + flag
3610  C140 00 00 00 00      DEFB 0,0,0,0,0,0,0,0,0,0,0,0,0,0,0,0,0,0,0,4,4,0,0,0,0,0,0,0,2,2,2,2
3610  C144 00 00 00 00
3610  C148 00 00 00 00
3610  C14C 00 00 00 00
3610  C150 00 00 00 04
3610  C154 04 00 00 00
3610  C158 00 00 00 00
3610  C15C 02 02 02 02
3611  C160 00 00 00 00      DEFB 0,0,0,0,0,0,0,4,4,0,0,0,0,0,0,0,0,0,0,0,0,0,0,0,0,0,0,0,0,0,0,6
3611  C164 00 00 00 04
3611  C168 04 00 00 00
3611  C16C 00 00 00 00
3611  C170 00 00 00 00
3611  C174 00 00 00 00
3611  C178 00 00 00 00
3611  C17C 00 00 00 06
3612  C180                  ; Row 6 pipe bodies
3613  C180 00 00 00 00      DEFB 0,0,0,0,0,0,0,0,0,0,0,0,0,0,0,0,0,0,0,5,5,0,0,0,0,0,0,0,0,0,0,0
3613  C184 00 00 00 00
3613  C188 00 00 00 00
3613  C18C 00 00 00 00
3613  C190 00 00 00 05
3613  C194 05 00 00 00
3613  C198 00 00 00 00
3613  C19C 00 00 00 00
3614  C1A0 00 00 00 00      DEFB 0,0,0,0,0,0,0,5,5,0,0,0,0,0,0,0,0,0,0,0,0,0,0,0,0,0,0,0,0,0,0,0
3614  C1A4 00 00 00 05
3614  C1A8 05 00 00 00
3614  C1AC 00 00 00 00
3614  C1B0 00 00 00 00
3614  C1B4 00 00 00 00
3614  C1B8 00 00 00 00
3614  C1BC 00 00 00 00
3615  C1C0                  ; Row 7 pipe bodies
3616  C1C0 00 00 00 00      DEFB 0,0,0,0,0,0,0,0,0,0,0,0,0,0,0,0,0,0,0,5,5,0,0,0,0,0,0,0,0,0,0,0
3616  C1C4 00 00 00 00
3616  C1C8 00 00 00 00
3616  C1CC 00 00 00 00
3616  C1D0 00 00 00 05
3616  C1D4 05 00 00 00
3616  C1D8 00 00 00 00
3616  C1DC 00 00 00 00
3617  C1E0 00 00 00 00      DEFB 0,0,0,0,0,0,0,5,5,0,0,0,0,0,0,0,0,0,0,0,0,0,0,0,0,0,0,0,0,0,0,0
3617  C1E4 00 00 00 05
3617  C1E8 05 00 00 00
3617  C1EC 00 00 00 00
3617  C1F0 00 00 00 00
3617  C1F4 00 00 00 00
3617  C1F8 00 00 00 00
3617  C1FC 00 00 00 00
3618  C200                  ; Row 8 sky
3619  C200 00 00 00 00      DEFB 0,0,0,0,0,0,0,0,0,0,0,0,0,0,0,0,0,0,0,0,0,0,0,0,0,0,0,0,0,0,0,0
3619  C204 00 00 00 00
3619  C208 00 00 00 00
3619  C20C 00 00 00 00
3619  C210 00 00 00 00
3619  C214 00 00 00 00
3619  C218 00 00 00 00
3619  C21C 00 00 00 00
3620  C220 00 00 00 00      DEFB 0,0,0,0,0,0,0,0,0,0,0,0,0,0,0,0,0,0,0,0,0,0,0,0,0,0,0,0,0,0,0,0
3620  C224 00 00 00 00
3620  C228 00 00 00 00
3620  C22C 00 00 00 00
3620  C230 00 00 00 00
3620  C234 00 00 00 00
3620  C238 00 00 00 00
3620  C23C 00 00 00 00
3621  C240                  ; Row 9 ground with pit at cols 32-34
3622  C240 01 01 01 01      DEFB 1,1,1,1,1,1,1,1,1,1,1,1,1,1,1,1,1,1,1,1,1,1,1,1,1,1,1,1,1,1,1,1
3622  C244 01 01 01 01
3622  C248 01 01 01 01
3622  C24C 01 01 01 01
3622  C250 01 01 01 01
3622  C254 01 01 01 01
3622  C258 01 01 01 01
3622  C25C 01 01 01 01
3623  C260 00 00 00 01      DEFB 0,0,0,1,1,1,1,1,1,1,1,1,1,1,1,1,1,1,1,1,1,1,1,1,1,1,1,1,1,1,1,1
3623  C264 01 01 01 01
3623  C268 01 01 01 01
3623  C26C 01 01 01 01
3623  C270 01 01 01 01
3623  C274 01 01 01 01
3623  C278 01 01 01 01
3623  C27C 01 01 01 01
3624  C280                  ; Row 10 solid base
3625  C280 01 01 01 01      DEFB 1,1,1,1,1,1,1,1,1,1,1,1,1,1,1,1,1,1,1,1,1,1,1,1,1,1,1,1,1,1,1,1
3625  C284 01 01 01 01
3625  C288 01 01 01 01
3625  C28C 01 01 01 01
3625  C290 01 01 01 01
3625  C294 01 01 01 01
3625  C298 01 01 01 01
3625  C29C 01 01 01 01
3626  C2A0 01 01 01 01      DEFB 1,1,1,1,1,1,1,1,1,1,1,1,1,1,1,1,1,1,1,1,1,1,1,1,1,1,1,1,1,1,1,1
3626  C2A4 01 01 01 01
3626  C2A8 01 01 01 01
3626  C2AC 01 01 01 01
3626  C2B0 01 01 01 01
3626  C2B4 01 01 01 01
3626  C2B8 01 01 01 01
3626  C2BC 01 01 01 01
3627  C2C0
3628  C2C0              W1L2_MAP:
3629  C2C0                  ; Ceiling
3630  C2C0 01 01 01 01      DEFB 1,1,1,1,1,1,1,1,1,1,1,1,1,1,1,1,1,1,1,1,1,1,1,1,1,1,1,1,1,1,1,1
3630  C2C4 01 01 01 01
3630  C2C8 01 01 01 01
3630  C2CC 01 01 01 01
3630  C2D0 01 01 01 01
3630  C2D4 01 01 01 01
3630  C2D8 01 01 01 01
3630  C2DC 01 01 01 01
3631  C2E0 01 01 01 01      DEFB 1,1,1,1,1,1,1,1,1,1,1,1,1,1,1,1,1,1,1,1,1,1,1,1,1,1,1,1,1,1,1,1
3631  C2E4 01 01 01 01
3631  C2E8 01 01 01 01
3631  C2EC 01 01 01 01
3631  C2F0 01 01 01 01
3631  C2F4 01 01 01 01
3631  C2F8 01 01 01 01
3631  C2FC 01 01 01 01
3632  C300                  ; Hidden blocks
3633  C300 07 07 07 07      DEFB 7,7,7,7,7,7,7,7,7,7,7,7,3,7,7,7,3,7,7,7,7,7,7,7,3,7,7,7,7,7,7,7
3633  C304 07 07 07 07
3633  C308 07 07 07 07
3633  C30C 03 07 07 07
3633  C310 03 07 07 07
3633  C314 07 07 07 07
3633  C318 03 07 07 07
3633  C31C 07 07 07 07
3634  C320 07 07 07 07      DEFB 7,7,7,7,7,7,7,7,7,7,7,7,7,7,7,7,3,7,7,7,7,7,7,7,7,7,7,7,7,7,7,7
3634  C324 07 07 07 07
3634  C328 07 07 07 07
3634  C32C 07 07 07 07
3634  C330 03 07 07 07
3634  C334 07 07 07 07
3634  C338 07 07 07 07
3634  C33C 07 07 07 07
3635  C340                  ; Open interior
3636  C340 00 00 00 00      DEFB 0,0,0,0,0,0,0,0,0,0,0,0,0,0,0,0,0,0,0,0,0,0,0,0,0,0,0,0,0,0,0,0
3636  C344 00 00 00 00
3636  C348 00 00 00 00
3636  C34C 00 00 00 00
3636  C350 00 00 00 00
3636  C354 00 00 00 00
3636  C358 00 00 00 00
3636  C35C 00 00 00 00
3637  C360 00 00 00 00      DEFB 0,0,0,0,0,0,0,0,0,0,0,0,0,0,0,0,0,0,0,0,0,0,0,0,0,0,0,0,0,0,0,0
3637  C364 00 00 00 00
3637  C368 00 00 00 00
3637  C36C 00 00 00 00
3637  C370 00 00 00 00
3637  C374 00 00 00 00
3637  C378 00 00 00 00
3637  C37C 00 00 00 00
3638  C380 00 00 00 00      DEFB 0,0,0,0,0,0,0,0,0,0,0,0,0,0,0,0,0,0,0,0,0,0,0,0,0,0,0,0,0,0,0,0
3638  C384 00 00 00 00
3638  C388 00 00 00 00
3638  C38C 00 00 00 00
3638  C390 00 00 00 00
3638  C394 00 00 00 00
3638  C398 00 00 00 00
3638  C39C 00 00 00 00
3639  C3A0 00 00 00 00      DEFB 0,0,0,0,0,0,0,0,0,0,0,0,0,0,0,0,0,0,0,0,0,0,0,0,0,0,0,0,0,0,0,0
3639  C3A4 00 00 00 00
3639  C3A8 00 00 00 00
3639  C3AC 00 00 00 00
3639  C3B0 00 00 00 00
3639  C3B4 00 00 00 00
3639  C3B8 00 00 00 00
3639  C3BC 00 00 00 00
3640  C3C0                  ; Mid platforms
3641  C3C0 00 00 00 00      DEFB 0,0,0,0,0,0,0,0,2,2,2,2,0,0,0,0,0,0,0,0,2,2,2,2,0,0,0,0,0,0,0,0
3641  C3C4 00 00 00 00
3641  C3C8 02 02 02 02
3641  C3CC 00 00 00 00
3641  C3D0 00 00 00 00
3641  C3D4 02 02 02 02
3641  C3D8 00 00 00 00
3641  C3DC 00 00 00 00
3642  C3E0 00 00 00 00      DEFB 0,0,0,0,0,0,0,0,0,0,0,0,0,0,0,0,2,2,2,2,0,0,0,0,0,0,0,0,2,2,6,0
3642  C3E4 00 00 00 00
3642  C3E8 00 00 00 00
3642  C3EC 00 00 00 00
3642  C3F0 02 02 02 02
3642  C3F4 00 00 00 00
3642  C3F8 00 00 00 00
3642  C3FC 02 02 06 00
3643  C400 00 00 00 00      DEFB 0,0,0,0,0,0,0,0,0,0,0,0,0,0,0,0,0,0,0,0,0,0,0,0,0,0,0,0,0,0,0,0
3643  C404 00 00 00 00
3643  C408 00 00 00 00
3643  C40C 00 00 00 00
3643  C410 00 00 00 00
3643  C414 00 00 00 00
3643  C418 00 00 00 00
3643  C41C 00 00 00 00
3644  C420 00 00 00 00      DEFB 0,0,0,0,0,0,0,0,0,0,0,0,0,0,0,0,0,0,0,0,0,0,0,0,0,0,0,0,0,0,0,0
3644  C424 00 00 00 00
3644  C428 00 00 00 00
3644  C42C 00 00 00 00
3644  C430 00 00 00 00
3644  C434 00 00 00 00
3644  C438 00 00 00 00
3644  C43C 00 00 00 00
3645  C440                  ; Floor
3646  C440 01 01 01 01      DEFB 1,1,1,1,1,1,1,1,1,1,1,1,1,1,1,1,1,1,1,1,1,1,1,1,1,1,1,1,1,1,1,1
3646  C444 01 01 01 01
3646  C448 01 01 01 01
3646  C44C 01 01 01 01
3646  C450 01 01 01 01
3646  C454 01 01 01 01
3646  C458 01 01 01 01
3646  C45C 01 01 01 01
3647  C460 01 01 01 01      DEFB 1,1,1,1,1,1,1,1,1,1,1,1,1,1,1,1,1,1,1,1,1,1,1,1,1,1,1,1,1,1,1,1
3647  C464 01 01 01 01
3647  C468 01 01 01 01
3647  C46C 01 01 01 01
3647  C470 01 01 01 01
3647  C474 01 01 01 01
3647  C478 01 01 01 01
3647  C47C 01 01 01 01
3648  C480 00 00 00...      DS (MAP_W*MAP_H - ($-W1L2_MAP)), 0   ; pad to 704 bytes (Fix 25e: was missing)
3649  C580
3650  C580              W1L3_MAP:
3651  C580                  ; Castle boss arena
3652  C580 09 09 09 09      DEFB 9,9,9,9,9,9,9,9,9,9,9,9,9,9,9,9,9,9,9,9,9,9,9,9,9,9,9,9,9,9,9,9
3652  C584 09 09 09 09
3652  C588 09 09 09 09
3652  C58C 09 09 09 09
3652  C590 09 09 09 09
3652  C594 09 09 09 09
3652  C598 09 09 09 09
3652  C59C 09 09 09 09
3653  C5A0 09 09 09 09      DEFB 9,9,9,9,9,9,9,9,9,9,9,9,9,9,9,9,9,9,9,9,9,9,9,9,9,9,9,9,9,9,9,9
3653  C5A4 09 09 09 09
3653  C5A8 09 09 09 09
3653  C5AC 09 09 09 09
3653  C5B0 09 09 09 09
3653  C5B4 09 09 09 09
3653  C5B8 09 09 09 09
3653  C5BC 09 09 09 09
3654  C5C0 09 00 00 00      DEFB 9,0,0,0,0,0,0,0,0,0,0,0,0,0,0,0,0,0,0,0,0,0,0,0,0,0,0,0,0,0,0,9
3654  C5C4 00 00 00 00
3654  C5C8 00 00 00 00
3654  C5CC 00 00 00 00
3654  C5D0 00 00 00 00
3654  C5D4 00 00 00 00
3654  C5D8 00 00 00 00
3654  C5DC 00 00 00 09
3655  C5E0 09 00 00 00      DEFB 9,0,0,0,0,0,0,0,0,0,0,0,0,0,0,0,0,0,0,0,0,0,0,0,0,0,0,0,0,0,0,9
3655  C5E4 00 00 00 00
3655  C5E8 00 00 00 00
3655  C5EC 00 00 00 00
3655  C5F0 00 00 00 00
3655  C5F4 00 00 00 00
3655  C5F8 00 00 00 00
3655  C5FC 00 00 00 09
3656  C600 09 00 00 00      DEFB 9,0,0,0,0,0,0,0,0,0,0,0,0,0,0,0,0,0,0,0,0,0,0,0,0,0,0,0,0,0,0,9
3656  C604 00 00 00 00
3656  C608 00 00 00 00
3656  C60C 00 00 00 00
3656  C610 00 00 00 00
3656  C614 00 00 00 00
3656  C618 00 00 00 00
3656  C61C 00 00 00 09
3657  C620 09 00 00 00      DEFB 9,0,0,0,0,0,0,0,0,0,0,0,0,0,0,0,0,0,0,0,0,0,0,0,0,0,0,0,0,0,0,9
3657  C624 00 00 00 00
3657  C628 00 00 00 00
3657  C62C 00 00 00 00
3657  C630 00 00 00 00
3657  C634 00 00 00 00
3657  C638 00 00 00 00
3657  C63C 00 00 00 09
3658  C640 09 00 00 00      DEFB 9,0,0,0,0,0,0,0,0,0,0,0,0,0,0,0,0,0,0,0,0,0,0,0,0,0,0,0,0,0,0,9
3658  C644 00 00 00 00
3658  C648 00 00 00 00
3658  C64C 00 00 00 00
3658  C650 00 00 00 00
3658  C654 00 00 00 00
3658  C658 00 00 00 00
3658  C65C 00 00 00 09
3659  C660 09 00 00 00      DEFB 9,0,0,0,0,0,0,0,0,0,0,0,0,0,0,0,0,0,0,0,0,0,0,0,0,0,0,0,0,0,0,9
3659  C664 00 00 00 00
3659  C668 00 00 00 00
3659  C66C 00 00 00 00
3659  C670 00 00 00 00
3659  C674 00 00 00 00
3659  C678 00 00 00 00
3659  C67C 00 00 00 09
3660  C680 09 00 00 00      DEFB 9,0,0,0,0,0,0,0,0,0,0,0,0,0,0,0,0,0,0,0,0,0,0,0,0,0,0,0,0,0,0,9
3660  C684 00 00 00 00
3660  C688 00 00 00 00
3660  C68C 00 00 00 00
3660  C690 00 00 00 00
3660  C694 00 00 00 00
3660  C698 00 00 00 00
3660  C69C 00 00 00 09
3661  C6A0 09 09 09 09      DEFB 9,9,9,9,9,9,9,9,9,9,9,9,9,9,9,9,9,9,9,9,9,9,9,9,9,9,9,9,9,9,6,9
3661  C6A4 09 09 09 09
3661  C6A8 09 09 09 09
3661  C6AC 09 09 09 09
3661  C6B0 09 09 09 09
3661  C6B4 09 09 09 09
3661  C6B8 09 09 09 09
3661  C6BC 09 09 06 09
3662  C6C0 09 09 09 09      DEFB 9,9,9,9,9,9,9,9,9,9,9,9,9,9,9,9,9,9,9,9,9,9,9,9,9,9,9,9,9,9,9,9
3662  C6C4 09 09 09 09
3662  C6C8 09 09 09 09
3662  C6CC 09 09 09 09
3662  C6D0 09 09 09 09
3662  C6D4 09 09 09 09
3662  C6D8 09 09 09 09
3662  C6DC 09 09 09 09
3663  C6E0 09 09 09...      DS (MAP_W*MAP_H - ($-W1L3_MAP)), 9
3664  C840
3665  C840              W1_SPAWNS:
3666  C840 01 06 09         DEFB ENT_WALKER, 6, 9
3667  C843 01 10 09         DEFB ENT_WALKER,16, 9
3668  C846 01 18 09         DEFB ENT_WALKER,24, 9
3669  C849 01 24 09         DEFB ENT_WALKER,36, 9
3670  C84C 02 2C 09         DEFB ENT_SHELLER, 44, 9
3671  C84F FF               DEFB $FF
3672  C850 00 00 00...      DS 16, 0    ; 5×3+1=16 used, 32-16=16 pad (Fix 25f)
3673  C860 01 08 09         DEFB ENT_WALKER, 8, 9
3674  C863 01 0E 09         DEFB ENT_WALKER,14, 9
3675  C866 02 14 09         DEFB ENT_SHELLER, 20, 9
3676  C869 01 1E 09         DEFB ENT_WALKER,30, 9
3677  C86C FF               DEFB $FF
3678  C86D 00 00 00...      DS 19, 0    ; 4×3+1=13 used, 32-13=19 pad (Fix 25f)
3679  C880 03 30 07         DEFB ENT_BOSS, 48, 7
3680  C883 FF               DEFB $FF
3681  C884 00 00 00...      DS 28, 0    ; 1×3+1=4 used, 32-4=28 pad (Fix 25f)
3682  C8A0
3683  C8A0              ; ============================================================
3684  C8A0              ; BANK 1 — WORLD 2 DATA
3685  C8A0              ; ============================================================
3686  C8A0                  PAGE 1
3687  C8A0                  ORG $C000
3688  C000
3689  C000              W2L1_MAP:
3690  C000 00 00 00 00      DEFB 0,0,0,0,0,0,0,0,0,0,0,0,0,0,0,0,0,0,0,0,0,0,0,0,0,0,0,0,0,0,0,0
3690  C004 00 00 00 00
3690  C008 00 00 00 00
3690  C00C 00 00 00 00
3690  C010 00 00 00 00
3690  C014 00 00 00 00
3690  C018 00 00 00 00
3690  C01C 00 00 00 00
3691  C020 00 00 00 00      DEFB 0,0,0,0,0,0,0,0,0,0,0,0,0,0,0,0,0,0,0,0,0,0,0,0,0,0,0,0,0,0,0,0
3691  C024 00 00 00 00
3691  C028 00 00 00 00
3691  C02C 00 00 00 00
3691  C030 00 00 00 00
3691  C034 00 00 00 00
3691  C038 00 00 00 00
3691  C03C 00 00 00 00
3692  C040 00 00 00 02      DEFB 0,0,0,2,2,2,0,0,0,0,0,3,0,0,0,2,2,2,2,0,0,0,0,0,0,0,0,0,3,0,0,0
3692  C044 02 02 00 00
3692  C048 00 00 00 03
3692  C04C 00 00 00 02
3692  C050 02 02 02 00
3692  C054 00 00 00 00
3692  C058 00 00 00 00
3692  C05C 03 00 00 00
3693  C060 00 00 00 00      DEFB 0,0,0,0,0,0,0,0,0,0,0,0,2,2,2,2,0,0,0,0,0,0,3,0,0,0,0,0,0,0,0,0
3693  C064 00 00 00 00
3693  C068 00 00 00 00
3693  C06C 02 02 02 02
3693  C070 00 00 00 00
3693  C074 00 00 03 00
3693  C078 00 00 00 00
3693  C07C 00 00 00 00
3694  C080 00 00 00 00      DEFB 0,0,0,0,0,0,0,0,0,0,0,0,0,0,0,0,0,0,0,0,0,0,0,0,0,0,0,0,0,0,0,0
3694  C084 00 00 00 00
3694  C088 00 00 00 00
3694  C08C 00 00 00 00
3694  C090 00 00 00 00
3694  C094 00 00 00 00
3694  C098 00 00 00 00
3694  C09C 00 00 00 00
3695  C0A0 00 00 00 00      DEFB 0,0,0,0,0,0,0,0,0,0,0,0,0,0,0,0,0,0,0,0,0,0,0,0,0,0,0,0,0,0,0,0
3695  C0A4 00 00 00 00
3695  C0A8 00 00 00 00
3695  C0AC 00 00 00 00
3695  C0B0 00 00 00 00
3695  C0B4 00 00 00 00
3695  C0B8 00 00 00 00
3695  C0BC 00 00 00 00
3696  C0C0 00 00 00 00      DEFB 0,0,0,0,0,0,0,0,0,0,0,0,0,0,0,0,0,0,0,0,0,0,0,0,0,0,0,0,0,0,0,0
3696  C0C4 00 00 00 00
3696  C0C8 00 00 00 00
3696  C0CC 00 00 00 00
3696  C0D0 00 00 00 00
3696  C0D4 00 00 00 00
3696  C0D8 00 00 00 00
3696  C0DC 00 00 00 00
3697  C0E0 00 00 00 00      DEFB 0,0,0,0,0,0,0,0,0,0,0,0,0,0,0,0,0,0,0,0,0,0,0,0,0,0,0,0,0,0,0,0
3697  C0E4 00 00 00 00
3697  C0E8 00 00 00 00
3697  C0EC 00 00 00 00
3697  C0F0 00 00 00 00
3697  C0F4 00 00 00 00
3697  C0F8 00 00 00 00
3697  C0FC 00 00 00 00
3698  C100 00 00 00 00      DEFB 0,0,0,0,0,0,0,0,0,0,0,0,0,0,0,0,0,0,0,0,0,0,0,0,0,0,0,0,0,0,0,0
3698  C104 00 00 00 00
3698  C108 00 00 00 00
3698  C10C 00 00 00 00
3698  C110 00 00 00 00
3698  C114 00 00 00 00
3698  C118 00 00 00 00
3698  C11C 00 00 00 00
3699  C120 01 01 01 01      DEFB 1,1,1,1,1,1,1,1,1,1,0,0,0,1,1,1,1,1,1,1,1,0,0,0,1,1,1,1,1,1,6,1
3699  C124 01 01 01 01
3699  C128 01 01 00 00
3699  C12C 00 01 01 01
3699  C130 01 01 01 01
3699  C134 01 00 00 00
3699  C138 01 01 01 01
3699  C13C 01 01 06 01
3700  C140 01 01 01 01      DEFB 1,1,1,1,1,1,1,1,1,1,1,1,1,1,1,1,1,1,1,1,1,1,1,1,1,1,1,1,1,1,1,1
3700  C144 01 01 01 01
3700  C148 01 01 01 01
3700  C14C 01 01 01 01
3700  C150 01 01 01 01
3700  C154 01 01 01 01
3700  C158 01 01 01 01
3700  C15C 01 01 01 01
3701  C160 00 00 00...      DS (MAP_W*MAP_H - ($-W2L1_MAP)), 0
3702  C2C0
3703  C2C0              W2L2_MAP:
3704  C2C0 00 00 00 00      DEFB 0,0,0,0,0,0,0,0,0,0,0,0,0,0,0,0,0,0,0,0,0,0,0,0,0,0,0,0,0,0,0,0
3704  C2C4 00 00 00 00
3704  C2C8 00 00 00 00
3704  C2CC 00 00 00 00
3704  C2D0 00 00 00 00
3704  C2D4 00 00 00 00
3704  C2D8 00 00 00 00
3704  C2DC 00 00 00 00
3705  C2E0 00 00 00 00      DEFB 0,0,0,0,0,0,0,0,0,0,0,0,0,0,0,0,0,0,0,0,0,0,0,0,0,0,0,0,0,0,0,0
3705  C2E4 00 00 00 00
3705  C2E8 00 00 00 00
3705  C2EC 00 00 00 00
3705  C2F0 00 00 00 00
3705  C2F4 00 00 00 00
3705  C2F8 00 00 00 00
3705  C2FC 00 00 00 00
3706  C300 00 00 02 03      DEFB 0,0,2,3,2,0,0,0,0,0,0,0,0,0,2,3,2,0,0,0,0,0,0,0,0,0,0,0,2,3,2,0
3706  C304 02 00 00 00
3706  C308 00 00 00 00
3706  C30C 00 00 02 03
3706  C310 02 00 00 00
3706  C314 00 00 00 00
3706  C318 00 00 00 00
3706  C31C 02 03 02 00
3707  C320 00 00 00 00      DEFB 0,0,0,0,0,0,0,0,0,0,0,0,0,0,0,0,0,0,0,0,0,0,0,0,0,0,0,0,0,0,0,0
3707  C324 00 00 00 00
3707  C328 00 00 00 00
3707  C32C 00 00 00 00
3707  C330 00 00 00 00
3707  C334 00 00 00 00
3707  C338 00 00 00 00
3707  C33C 00 00 00 00
3708  C340 00 00 00 00      DEFB 0,0,0,0,0,0,0,0,0,0,0,0,0,0,0,0,0,0,0,0,0,0,0,0,0,0,0,0,0,0,0,0
3708  C344 00 00 00 00
3708  C348 00 00 00 00
3708  C34C 00 00 00 00
3708  C350 00 00 00 00
3708  C354 00 00 00 00
3708  C358 00 00 00 00
3708  C35C 00 00 00 00
3709  C360 00 00 00 00      DEFB 0,0,0,0,0,0,0,0,0,0,0,0,0,0,0,0,0,0,0,0,0,0,0,0,0,0,0,0,0,0,0,0
3709  C364 00 00 00 00
3709  C368 00 00 00 00
3709  C36C 00 00 00 00
3709  C370 00 00 00 00
3709  C374 00 00 00 00
3709  C378 00 00 00 00
3709  C37C 00 00 00 00
3710  C380 00 00 00 00      DEFB 0,0,0,0,0,0,0,0,0,0,0,0,0,0,0,0,0,0,0,0,0,0,0,0,0,0,0,0,0,0,0,0
3710  C384 00 00 00 00
3710  C388 00 00 00 00
3710  C38C 00 00 00 00
3710  C390 00 00 00 00
3710  C394 00 00 00 00
3710  C398 00 00 00 00
3710  C39C 00 00 00 00
3711  C3A0 00 00 00 00      DEFB 0,0,0,0,0,0,0,0,0,0,0,0,0,0,0,0,0,0,0,0,0,0,0,0,0,0,0,0,0,0,0,0
3711  C3A4 00 00 00 00
3711  C3A8 00 00 00 00
3711  C3AC 00 00 00 00
3711  C3B0 00 00 00 00
3711  C3B4 00 00 00 00
3711  C3B8 00 00 00 00
3711  C3BC 00 00 00 00
3712  C3C0 00 00 00 00      DEFB 0,0,0,0,0,4,4,0,0,0,0,0,0,0,4,4,0,0,0,0,0,0,0,4,4,0,0,0,0,0,0,0
3712  C3C4 00 04 04 00
3712  C3C8 00 00 00 00
3712  C3CC 00 00 04 04
3712  C3D0 00 00 00 00
3712  C3D4 00 00 00 04
3712  C3D8 04 00 00 00
3712  C3DC 00 00 00 00
3713  C3E0 01 01 01 01      DEFB 1,1,1,1,0,0,0,0,0,0,1,1,1,1,0,0,0,0,0,0,1,1,0,0,0,0,0,0,1,1,6,1
3713  C3E4 00 00 00 00
3713  C3E8 00 00 01 01
3713  C3EC 01 01 00 00
3713  C3F0 00 00 00 00
3713  C3F4 01 01 00 00
3713  C3F8 00 00 00 00
3713  C3FC 01 01 06 01
3714  C400 01 01 01 01      DEFB 1,1,1,1,1,1,1,1,1,1,1,1,1,1,1,1,1,1,1,1,1,1,1,1,1,1,1,1,1,1,1,1
3714  C404 01 01 01 01
3714  C408 01 01 01 01
3714  C40C 01 01 01 01
3714  C410 01 01 01 01
3714  C414 01 01 01 01
3714  C418 01 01 01 01
3714  C41C 01 01 01 01
3715  C420 00 00 00...      DS (MAP_W*MAP_H - ($-W2L2_MAP)), 0
3716  C580
3717  C580              W2L3_MAP:
3718  C580 09 09 09 09      DEFB 9,9,9,9,9,9,9,9,9,9,9,9,9,9,9,9,9,9,9,9,9,9,9,9,9,9,9,9,9,9,9,9
3718  C584 09 09 09 09
3718  C588 09 09 09 09
3718  C58C 09 09 09 09
3718  C590 09 09 09 09
3718  C594 09 09 09 09
3718  C598 09 09 09 09
3718  C59C 09 09 09 09
3719  C5A0 09 09 09 09      DEFB 9,9,9,9,9,9,9,9,9,9,9,9,9,9,9,9,9,9,9,9,9,9,9,9,9,9,9,9,9,9,9,9
3719  C5A4 09 09 09 09
3719  C5A8 09 09 09 09
3719  C5AC 09 09 09 09
3719  C5B0 09 09 09 09
3719  C5B4 09 09 09 09
3719  C5B8 09 09 09 09
3719  C5BC 09 09 09 09
3720  C5C0 09 00 00 00      DEFB 9,0,0,0,0,0,0,0,0,0,0,0,0,0,0,0,0,0,0,0,0,0,0,0,0,0,0,0,0,0,0,9
3720  C5C4 00 00 00 00
3720  C5C8 00 00 00 00
3720  C5CC 00 00 00 00
3720  C5D0 00 00 00 00
3720  C5D4 00 00 00 00
3720  C5D8 00 00 00 00
3720  C5DC 00 00 00 09
3721  C5E0 09 00 00 00      DEFB 9,0,0,0,0,0,0,0,0,0,0,0,0,0,0,0,0,0,0,0,0,0,0,0,0,0,0,0,0,0,0,9
3721  C5E4 00 00 00 00
3721  C5E8 00 00 00 00
3721  C5EC 00 00 00 00
3721  C5F0 00 00 00 00
3721  C5F4 00 00 00 00
3721  C5F8 00 00 00 00
3721  C5FC 00 00 00 09
3722  C600 09 00 00 00      DEFB 9,0,0,0,0,0,0,0,0,0,0,0,0,0,0,0,0,0,0,0,0,0,0,0,0,0,0,0,0,0,0,9
3722  C604 00 00 00 00
3722  C608 00 00 00 00
3722  C60C 00 00 00 00
3722  C610 00 00 00 00
3722  C614 00 00 00 00
3722  C618 00 00 00 00
3722  C61C 00 00 00 09
3723  C620 09 00 00 00      DEFB 9,0,0,0,2,2,2,2,0,0,0,0,0,0,0,0,0,0,0,0,0,0,0,2,2,2,2,0,0,0,0,9
3723  C624 02 02 02 02
3723  C628 00 00 00 00
3723  C62C 00 00 00 00
3723  C630 00 00 00 00
3723  C634 00 00 00 02
3723  C638 02 02 02 00
3723  C63C 00 00 00 09
3724  C640 09 00 00 00      DEFB 9,0,0,0,0,0,0,0,0,0,0,0,0,0,0,0,0,0,0,0,0,0,0,0,0,0,0,0,0,0,0,9
3724  C644 00 00 00 00
3724  C648 00 00 00 00
3724  C64C 00 00 00 00
3724  C650 00 00 00 00
3724  C654 00 00 00 00
3724  C658 00 00 00 00
3724  C65C 00 00 00 09
3725  C660 09 00 00 00      DEFB 9,0,0,0,0,0,0,0,0,0,0,0,0,0,0,0,0,0,0,0,0,0,0,0,0,0,0,0,0,0,0,9
3725  C664 00 00 00 00
3725  C668 00 00 00 00
3725  C66C 00 00 00 00
3725  C670 00 00 00 00
3725  C674 00 00 00 00
3725  C678 00 00 00 00
3725  C67C 00 00 00 09
3726  C680 09 00 00 00      DEFB 9,0,0,0,0,0,0,0,0,0,0,0,0,0,0,0,0,0,0,0,0,0,0,0,0,0,0,0,0,0,0,9
3726  C684 00 00 00 00
3726  C688 00 00 00 00
3726  C68C 00 00 00 00
3726  C690 00 00 00 00
3726  C694 00 00 00 00
3726  C698 00 00 00 00
3726  C69C 00 00 00 09
3727  C6A0 09 09 09 09      DEFB 9,9,9,9,9,9,9,9,9,9,9,9,9,9,9,9,9,9,9,9,9,9,9,9,9,9,9,9,9,9,6,9
3727  C6A4 09 09 09 09
3727  C6A8 09 09 09 09
3727  C6AC 09 09 09 09
3727  C6B0 09 09 09 09
3727  C6B4 09 09 09 09
3727  C6B8 09 09 09 09
3727  C6BC 09 09 06 09
3728  C6C0 09 09 09 09      DEFB 9,9,9,9,9,9,9,9,9,9,9,9,9,9,9,9,9,9,9,9,9,9,9,9,9,9,9,9,9,9,9,9
3728  C6C4 09 09 09 09
3728  C6C8 09 09 09 09
3728  C6CC 09 09 09 09
3728  C6D0 09 09 09 09
3728  C6D4 09 09 09 09
3728  C6D8 09 09 09 09
3728  C6DC 09 09 09 09
3729  C6E0 09 09 09...      DS (MAP_W*MAP_H - ($-W2L3_MAP)), 9
3730  C840
3731  C840              W2_SPAWNS:
3732  C840 01 08 09         DEFB ENT_WALKER, 8, 9
3732  C843 02 0E 09       DEFB ENT_SHELLER,14, 9
3732  C846 01 14 09       DEFB ENT_WALKER,20, 9
3733  C849 02 1C 09         DEFB ENT_SHELLER, 28, 9
3733  C84C 01 24 09       DEFB ENT_WALKER,36, 9
3733  C84F FF             DEFB $FF
3734  C850 00 00 00...      DS 16, 0    ; 5×3+1=16 used, 32-16=16 pad (Fix 25f)
3735  C860 02 04 09         DEFB ENT_SHELLER,  4, 9
3735  C863 01 0A 09       DEFB ENT_WALKER,10, 9
3735  C866 02 12 09       DEFB ENT_SHELLER,18, 9
3736  C869 01 16 09         DEFB ENT_WALKER,22, 9
3736  C86C 02 1E 09       DEFB ENT_SHELLER, 30, 9
3736  C86F FF             DEFB $FF
3737  C870 00 00 00...      DS 16, 0    ; 5×3+1=16 used, 32-16=16 pad (Fix 25f)
3738  C880 03 30 07         DEFB ENT_BOSS, 48, 7
3738  C883 FF             DEFB $FF
3739  C884 00 00 00...      DS 28, 0    ; 1×3+1=4 used, 32-4=28 pad (Fix 25f)
3740  C8A0
3741  C8A0              ; ============================================================
3742  C8A0              ; BANK 3 — WORLD 3 DATA
3743  C8A0              ; ============================================================
3744  C8A0                  PAGE 3
3745  C8A0                  ORG $C000
3746  C000
3747  C000              W3L1_MAP:
3748  C000 00 00 00 00      DEFB 0,0,0,0,0,0,0,0,0,0,0,0,0,0,0,0,0,0,0,0,0,0,0,0,0,0,0,0,0,0,0,0
3748  C004 00 00 00 00
3748  C008 00 00 00 00
3748  C00C 00 00 00 00
3748  C010 00 00 00 00
3748  C014 00 00 00 00
3748  C018 00 00 00 00
3748  C01C 00 00 00 00
3749  C020 00 00 00 00      DEFB 0,0,0,0,0,0,0,0,0,0,0,0,0,0,0,0,0,0,0,0,0,0,0,0,0,0,0,0,0,0,0,0
3749  C024 00 00 00 00
3749  C028 00 00 00 00
3749  C02C 00 00 00 00
3749  C030 00 00 00 00
3749  C034 00 00 00 00
3749  C038 00 00 00 00
3749  C03C 00 00 00 00
3750  C040 00 02 02 02      DEFB 0,2,2,2,3,2,2,2,0,0,0,0,0,0,0,0,0,0,2,3,2,2,0,0,0,0,0,0,0,0,0,0
3750  C044 03 02 02 02
3750  C048 00 00 00 00
3750  C04C 00 00 00 00
3750  C050 00 00 02 03
3750  C054 02 02 00 00
3750  C058 00 00 00 00
3750  C05C 00 00 00 00
3751  C060 00 00 00 00      DEFB 0,0,0,0,0,0,0,0,0,0,0,0,0,0,0,0,0,0,0,0,0,0,0,0,2,3,2,3,2,0,0,0
3751  C064 00 00 00 00
3751  C068 00 00 00 00
3751  C06C 00 00 00 00
3751  C070 00 00 00 00
3751  C074 00 00 00 00
3751  C078 02 03 02 03
3751  C07C 02 00 00 00
3752  C080 00 00 00 00      DEFB 0,0,0,0,0,0,0,0,0,0,0,0,0,0,0,0,0,0,0,0,0,0,0,0,0,0,0,0,0,0,0,0
3752  C084 00 00 00 00
3752  C088 00 00 00 00
3752  C08C 00 00 00 00
3752  C090 00 00 00 00
3752  C094 00 00 00 00
3752  C098 00 00 00 00
3752  C09C 00 00 00 00
3753  C0A0 00 00 00 00      DEFB 0,0,0,0,0,0,0,0,0,0,0,0,0,0,4,4,0,0,0,0,0,0,0,0,0,0,0,0,0,0,0,0
3753  C0A4 00 00 00 00
3753  C0A8 00 00 00 00
3753  C0AC 00 00 04 04
3753  C0B0 00 00 00 00
3753  C0B4 00 00 00 00
3753  C0B8 00 00 00 00
3753  C0BC 00 00 00 00
3754  C0C0 00 00 00 00      DEFB 0,0,0,0,0,0,0,0,0,0,0,0,0,0,5,5,0,0,0,0,0,0,0,0,4,4,0,0,0,0,0,0
3754  C0C4 00 00 00 00
3754  C0C8 00 00 00 00
3754  C0CC 00 00 05 05
3754  C0D0 00 00 00 00
3754  C0D4 00 00 00 00
3754  C0D8 04 04 00 00
3754  C0DC 00 00 00 00
3755  C0E0 00 00 00 00      DEFB 0,0,0,0,0,0,0,0,0,0,0,0,0,0,5,5,0,0,0,0,0,0,0,0,5,5,0,0,0,0,0,0
3755  C0E4 00 00 00 00
3755  C0E8 00 00 00 00
3755  C0EC 00 00 05 05
3755  C0F0 00 00 00 00
3755  C0F4 00 00 00 00
3755  C0F8 05 05 00 00
3755  C0FC 00 00 00 00
3756  C100 00 00 00 00      DEFB 0,0,0,0,0,0,0,0,0,0,0,0,0,0,5,5,0,0,0,0,0,0,0,0,5,5,0,0,0,0,0,0
3756  C104 00 00 00 00
3756  C108 00 00 00 00
3756  C10C 00 00 05 05
3756  C110 00 00 00 00
3756  C114 00 00 00 00
3756  C118 05 05 00 00
3756  C11C 00 00 00 00
3757  C120 01 01 01 01      DEFB 1,1,1,1,0,0,1,1,1,1,0,0,0,0,0,0,1,1,1,1,1,1,0,0,0,0,0,0,1,1,6,1
3757  C124 00 00 01 01
3757  C128 01 01 00 00
3757  C12C 00 00 00 00
3757  C130 01 01 01 01
3757  C134 01 01 00 00
3757  C138 00 00 00 00
3757  C13C 01 01 06 01
3758  C140 01 01 01 01      DEFB 1,1,1,1,1,1,1,1,1,1,1,1,1,1,1,1,1,1,1,1,1,1,1,1,1,1,1,1,1,1,1,1
3758  C144 01 01 01 01
3758  C148 01 01 01 01
3758  C14C 01 01 01 01
3758  C150 01 01 01 01
3758  C154 01 01 01 01
3758  C158 01 01 01 01
3758  C15C 01 01 01 01
3759  C160 00 00 00...      DS (MAP_W*MAP_H - ($-W3L1_MAP)), 0
3760  C2C0
3761  C2C0              W3L2_MAP:
3762  C2C0 00 00 00 00      DEFB 0,0,0,0,0,0,0,0,0,0,0,0,0,0,0,0,0,0,0,0,0,0,0,0,0,0,0,0,0,0,0,0
3762  C2C4 00 00 00 00
3762  C2C8 00 00 00 00
3762  C2CC 00 00 00 00
3762  C2D0 00 00 00 00
3762  C2D4 00 00 00 00
3762  C2D8 00 00 00 00
3762  C2DC 00 00 00 00
3763  C2E0 00 00 00 00      DEFB 0,0,0,0,0,0,0,0,0,0,0,0,0,0,0,0,0,0,0,0,0,0,0,0,0,0,0,0,0,0,0,0
3763  C2E4 00 00 00 00
3763  C2E8 00 00 00 00
3763  C2EC 00 00 00 00
3763  C2F0 00 00 00 00
3763  C2F4 00 00 00 00
3763  C2F8 00 00 00 00
3763  C2FC 00 00 00 00
3764  C300 00 00 00 03      DEFB 0,0,0,3,0,0,0,0,0,3,0,0,0,0,0,3,0,0,0,0,0,3,0,0,0,0,0,3,0,0,0,0
3764  C304 00 00 00 00
3764  C308 00 03 00 00
3764  C30C 00 00 00 03
3764  C310 00 00 00 00
3764  C314 00 03 00 00
3764  C318 00 00 00 03
3764  C31C 00 00 00 00
3765  C320 00 00 00 00      DEFB 0,0,0,0,0,0,0,0,0,0,0,0,0,0,0,0,0,0,0,0,0,0,0,0,0,0,0,0,0,3,0,0
3765  C324 00 00 00 00
3765  C328 00 00 00 00
3765  C32C 00 00 00 00
3765  C330 00 00 00 00
3765  C334 00 00 00 00
3765  C338 00 00 00 00
3765  C33C 00 03 00 00
3766  C340 00 00 00 00      DEFB 0,0,0,0,0,0,0,0,0,0,0,0,0,0,0,0,0,0,0,0,0,0,0,0,0,0,0,0,0,0,0,0
3766  C344 00 00 00 00
3766  C348 00 00 00 00
3766  C34C 00 00 00 00
3766  C350 00 00 00 00
3766  C354 00 00 00 00
3766  C358 00 00 00 00
3766  C35C 00 00 00 00
3767  C360 00 00 00 00      DEFB 0,0,0,0,0,0,0,0,0,0,0,0,0,0,0,0,0,0,0,0,0,0,0,0,0,0,0,0,0,0,0,0
3767  C364 00 00 00 00
3767  C368 00 00 00 00
3767  C36C 00 00 00 00
3767  C370 00 00 00 00
3767  C374 00 00 00 00
3767  C378 00 00 00 00
3767  C37C 00 00 00 00
3768  C380 00 00 00 00      DEFB 0,0,0,0,0,0,0,0,0,0,0,0,0,0,0,0,0,0,0,0,0,0,0,0,0,0,0,0,0,0,0,0
3768  C384 00 00 00 00
3768  C388 00 00 00 00
3768  C38C 00 00 00 00
3768  C390 00 00 00 00
3768  C394 00 00 00 00
3768  C398 00 00 00 00
3768  C39C 00 00 00 00
3769  C3A0 00 00 00 00      DEFB 0,0,0,0,0,0,0,0,0,0,0,0,0,0,0,0,0,0,0,0,0,0,0,0,0,0,0,0,0,0,0,0
3769  C3A4 00 00 00 00
3769  C3A8 00 00 00 00
3769  C3AC 00 00 00 00
3769  C3B0 00 00 00 00
3769  C3B4 00 00 00 00
3769  C3B8 00 00 00 00
3769  C3BC 00 00 00 00
3770  C3C0 00 00 00 00      DEFB 0,0,0,0,0,0,0,0,0,0,0,0,0,0,0,0,0,0,0,0,0,0,0,0,0,0,0,0,0,0,0,0
3770  C3C4 00 00 00 00
3770  C3C8 00 00 00 00
3770  C3CC 00 00 00 00
3770  C3D0 00 00 00 00
3770  C3D4 00 00 00 00
3770  C3D8 00 00 00 00
3770  C3DC 00 00 00 00
3771  C3E0 01 01 01 00      DEFB 1,1,1,0,0,1,1,1,0,0,0,1,1,1,0,0,0,1,1,1,0,0,0,0,1,1,0,0,0,0,6,1
3771  C3E4 00 01 01 01
3771  C3E8 00 00 00 01
3771  C3EC 01 01 00 00
3771  C3F0 00 01 01 01
3771  C3F4 00 00 00 00
3771  C3F8 01 01 00 00
3771  C3FC 00 00 06 01
3772  C400 01 01 01 01      DEFB 1,1,1,1,1,1,1,1,1,1,1,1,1,1,1,1,1,1,1,1,1,1,1,1,1,1,1,1,1,1,1,1
3772  C404 01 01 01 01
3772  C408 01 01 01 01
3772  C40C 01 01 01 01
3772  C410 01 01 01 01
3772  C414 01 01 01 01
3772  C418 01 01 01 01
3772  C41C 01 01 01 01
3773  C420 00 00 00...      DS (MAP_W*MAP_H - ($-W3L2_MAP)), 0
3774  C580
3775  C580              W3L3_MAP:
3776  C580 09 09 09 09      DEFB 9,9,9,9,9,9,9,9,9,9,9,9,9,9,9,9,9,9,9,9,9,9,9,9,9,9,9,9,9,9,9,9
3776  C584 09 09 09 09
3776  C588 09 09 09 09
3776  C58C 09 09 09 09
3776  C590 09 09 09 09
3776  C594 09 09 09 09
3776  C598 09 09 09 09
3776  C59C 09 09 09 09
3777  C5A0 09 09 09 09      DEFB 9,9,9,9,9,9,9,9,9,9,9,9,9,9,9,9,9,9,9,9,9,9,9,9,9,9,9,9,9,9,9,9
3777  C5A4 09 09 09 09
3777  C5A8 09 09 09 09
3777  C5AC 09 09 09 09
3777  C5B0 09 09 09 09
3777  C5B4 09 09 09 09
3777  C5B8 09 09 09 09
3777  C5BC 09 09 09 09
3778  C5C0 09 00 00 00      DEFB 9,0,0,0,0,0,0,0,0,0,0,0,0,0,0,0,0,0,0,0,0,0,0,0,0,0,0,0,0,0,0,9
3778  C5C4 00 00 00 00
3778  C5C8 00 00 00 00
3778  C5CC 00 00 00 00
3778  C5D0 00 00 00 00
3778  C5D4 00 00 00 00
3778  C5D8 00 00 00 00
3778  C5DC 00 00 00 09
3779  C5E0 09 00 00 00      DEFB 9,0,0,0,0,0,0,0,0,0,0,0,0,0,0,0,0,0,0,0,0,0,0,0,0,0,0,0,0,0,0,9
3779  C5E4 00 00 00 00
3779  C5E8 00 00 00 00
3779  C5EC 00 00 00 00
3779  C5F0 00 00 00 00
3779  C5F4 00 00 00 00
3779  C5F8 00 00 00 00
3779  C5FC 00 00 00 09
3780  C600 09 00 00 02      DEFB 9,0,0,2,2,2,2,0,0,0,0,0,0,0,0,0,0,0,0,0,0,0,0,0,0,2,2,2,2,0,0,9
3780  C604 02 02 02 00
3780  C608 00 00 00 00
3780  C60C 00 00 00 00
3780  C610 00 00 00 00
3780  C614 00 00 00 00
3780  C618 00 02 02 02
3780  C61C 02 00 00 09
3781  C620 09 00 00 00      DEFB 9,0,0,0,0,0,0,0,0,0,0,2,2,2,2,0,0,0,0,0,0,0,0,0,0,0,0,0,0,0,0,9
3781  C624 00 00 00 00
3781  C628 00 00 00 02
3781  C62C 02 02 02 00
3781  C630 00 00 00 00
3781  C634 00 00 00 00
3781  C638 00 00 00 00
3781  C63C 00 00 00 09
3782  C640 09 00 00 00      DEFB 9,0,0,0,0,0,0,0,0,0,0,0,0,0,0,0,0,0,0,0,0,0,0,0,0,0,0,0,0,0,0,9
3782  C644 00 00 00 00
3782  C648 00 00 00 00
3782  C64C 00 00 00 00
3782  C650 00 00 00 00
3782  C654 00 00 00 00
3782  C658 00 00 00 00
3782  C65C 00 00 00 09
3783  C660 09 00 00 00      DEFB 9,0,0,0,0,0,0,0,0,0,0,0,0,0,0,0,0,0,0,0,0,0,0,0,0,0,0,0,0,0,0,9
3783  C664 00 00 00 00
3783  C668 00 00 00 00
3783  C66C 00 00 00 00
3783  C670 00 00 00 00
3783  C674 00 00 00 00
3783  C678 00 00 00 00
3783  C67C 00 00 00 09
3784  C680 09 00 00 00      DEFB 9,0,0,0,0,0,0,0,0,0,0,0,0,0,0,0,0,0,0,0,0,0,0,0,0,0,0,0,0,0,0,9
3784  C684 00 00 00 00
3784  C688 00 00 00 00
3784  C68C 00 00 00 00
3784  C690 00 00 00 00
3784  C694 00 00 00 00
3784  C698 00 00 00 00
3784  C69C 00 00 00 09
3785  C6A0 09 09 09 09      DEFB 9,9,9,9,9,9,9,9,9,9,9,9,9,9,9,9,9,9,9,9,9,9,9,9,9,9,9,9,9,9,6,9
3785  C6A4 09 09 09 09
3785  C6A8 09 09 09 09
3785  C6AC 09 09 09 09
3785  C6B0 09 09 09 09
3785  C6B4 09 09 09 09
3785  C6B8 09 09 09 09
3785  C6BC 09 09 06 09
3786  C6C0 09 09 09 09      DEFB 9,9,9,9,9,9,9,9,9,9,9,9,9,9,9,9,9,9,9,9,9,9,9,9,9,9,9,9,9,9,9,9
3786  C6C4 09 09 09 09
3786  C6C8 09 09 09 09
3786  C6CC 09 09 09 09
3786  C6D0 09 09 09 09
3786  C6D4 09 09 09 09
3786  C6D8 09 09 09 09
3786  C6DC 09 09 09 09
3787  C6E0 09 09 09...      DS (MAP_W*MAP_H - ($-W3L3_MAP)), 9
3788  C840
3789  C840              W3_SPAWNS:
3790  C840 01 04 09         DEFB ENT_WALKER, 4, 9
3790  C843 02 08 09       DEFB ENT_SHELLER, 8, 9
3790  C846 01 0E 09       DEFB ENT_WALKER,14, 9
3791  C849 02 14 09         DEFB ENT_SHELLER, 20, 9
3791  C84C 01 1A 09       DEFB ENT_WALKER,26, 9
3791  C84F 02 20 09       DEFB ENT_SHELLER,32, 9
3792  C852 FF               DEFB $FF
3793  C853 00 00 00...      DS 13, 0    ; 6×3+1=19 used, 32-19=13 pad (Fix 25f)
3794  C860 02 04 09         DEFB ENT_SHELLER,  4, 9
3794  C863 02 0A 09       DEFB ENT_SHELLER,10, 9
3794  C866 01 10 09       DEFB ENT_WALKER,16, 9
3795  C869 02 16 09         DEFB ENT_SHELLER, 22, 9
3795  C86C 01 1C 09       DEFB ENT_WALKER,28, 9
3795  C86F FF             DEFB $FF
3796  C870 00 00 00...      DS 16, 0    ; 5×3+1=16 used, 32-16=16 pad (Fix 25f)
3797  C880 03 32 08         DEFB ENT_BOSS, 50, 8
3797  C883 FF             DEFB $FF
3798  C884 00 00 00...      DS 28, 0    ; 1×3+1=4 used, 32-4=28 pad (Fix 25f)
3799  C8A0
3800  C8A0                  ; Output raw bank binaries for the Python Z80 snapshot builder
3801  C8A0                  PAGE 2
3802  C8A0                  SAVEBIN "build/bank2.bin", $8000, $4000
3803  C8A0
3804  C8A0                  PAGE 7
3805  C8A0                  SAVEBIN "build/bank7.bin", $C000, $4000
3806  C8A0
3807  C8A0                  PAGE 0
3808  C8A0                  SAVEBIN "build/bank0.bin", $C000, $4000
3809  C8A0
3810  C8A0                  PAGE 1
3811  C8A0                  SAVEBIN "build/bank1.bin", $C000, $4000
3812  C8A0
3813  C8A0                  PAGE 3
3814  C8A0                  SAVEBIN "build/bank3.bin", $C000, $4000
3815  C8A0
# file closed: marco128.asm
